
build/labPrep2.elf:     file format elf32-littleriscv


Disassembly of section .text:

20000000 <_start>:
20000000:	2001c137          	lui	sp,0x2001c
20000004:	3d4010ef          	jal	200013d8 <_crt_init>
20000008:	00001297          	auipc	t0,0x1
2000000c:	c2828293          	addi	t0,t0,-984 # 20000c30 <main>
20000010:	00000097          	auipc	ra,0x0
20000014:	02008093          	addi	ra,ra,32 # 20000030 <exit>
20000018:	34129073          	csrw	mepc,t0
2000001c:	00002337          	lui	t1,0x2
20000020:	80030313          	addi	t1,t1,-2048 # 1800 <_start-0x1fffe800>
20000024:	08036313          	ori	t1,t1,128
20000028:	30031073          	csrw	mstatus,t1
2000002c:	30200073          	mret

20000030 <exit>:
20000030:	5f0010ef          	jal	20001620 <_crt_deinit>
20000034:	0000006f          	j	20000034 <exit+0x4>

20000038 <delay_ns>:
//               the code for this. Implement the delay functions below.
//               They are not tested in this assignment, so make sure they
//               work using the Lecture06 Exercise02.
///////////////////////////////////////////////////////////////////////////////
void delay_ns(uint64_t ns)
{
20000038:	fd010113          	addi	sp,sp,-48 # 2001bfd0 <__stack_top+0x1655c>
2000003c:	02112623          	sw	ra,44(sp)
20000040:	02812423          	sw	s0,40(sp)
20000044:	03010413          	addi	s0,sp,48
20000048:	fca42c23          	sw	a0,-40(s0)
2000004c:	fcb42e23          	sw	a1,-36(s0)
   for (int i = 0; i < 10000; i++){
20000050:	fe042623          	sw	zero,-20(s0)
20000054:	0100006f          	j	20000064 <delay_ns+0x2c>
20000058:	fec42783          	lw	a5,-20(s0)
2000005c:	00178793          	addi	a5,a5,1
20000060:	fef42623          	sw	a5,-20(s0)
20000064:	fec42703          	lw	a4,-20(s0)
20000068:	000027b7          	lui	a5,0x2
2000006c:	70f78793          	addi	a5,a5,1807 # 270f <_start-0x1fffd8f1>
20000070:	fee7d4e3          	bge	a5,a4,20000058 <delay_ns+0x20>
    int j;
   }
}
20000074:	00000013          	nop
20000078:	00000013          	nop
2000007c:	02c12083          	lw	ra,44(sp)
20000080:	02812403          	lw	s0,40(sp)
20000084:	03010113          	addi	sp,sp,48
20000088:	00008067          	ret

2000008c <delay_us>:

void delay_us(uint32_t us)
{
2000008c:	fe010113          	addi	sp,sp,-32
20000090:	00112e23          	sw	ra,28(sp)
20000094:	00812c23          	sw	s0,24(sp)
20000098:	02010413          	addi	s0,sp,32
2000009c:	fea42623          	sw	a0,-20(s0)
    // Delay for us microseconds using delay_ns
    delay_ns((uint64_t)us * 1000);
200000a0:	fec42583          	lw	a1,-20(s0)
200000a4:	00058713          	mv	a4,a1
200000a8:	00000793          	li	a5,0
200000ac:	3e800593          	li	a1,1000
200000b0:	02b78533          	mul	a0,a5,a1
200000b4:	00000593          	li	a1,0
200000b8:	02b705b3          	mul	a1,a4,a1
200000bc:	00b50533          	add	a0,a0,a1
200000c0:	3e800593          	li	a1,1000
200000c4:	02b70833          	mul	a6,a4,a1
200000c8:	02b736b3          	mulhu	a3,a4,a1
200000cc:	00080613          	mv	a2,a6
200000d0:	00d507b3          	add	a5,a0,a3
200000d4:	00078693          	mv	a3,a5
200000d8:	00060513          	mv	a0,a2
200000dc:	00068593          	mv	a1,a3
200000e0:	f59ff0ef          	jal	20000038 <delay_ns>
}
200000e4:	00000013          	nop
200000e8:	01c12083          	lw	ra,28(sp)
200000ec:	01812403          	lw	s0,24(sp)
200000f0:	02010113          	addi	sp,sp,32
200000f4:	00008067          	ret

200000f8 <delay_ms>:


void delay_ms(uint32_t ms)
{
200000f8:	fe010113          	addi	sp,sp,-32
200000fc:	00112e23          	sw	ra,28(sp)
20000100:	00812c23          	sw	s0,24(sp)
20000104:	02010413          	addi	s0,sp,32
20000108:	fea42623          	sw	a0,-20(s0)
    // Delay for ms milliseconds using delay_us
    delay_us(ms * 1000);
2000010c:	fec42703          	lw	a4,-20(s0)
20000110:	3e800793          	li	a5,1000
20000114:	02f707b3          	mul	a5,a4,a5
20000118:	00078513          	mv	a0,a5
2000011c:	f71ff0ef          	jal	2000008c <delay_us>
}
20000120:	00000013          	nop
20000124:	01c12083          	lw	ra,28(sp)
20000128:	01812403          	lw	s0,24(sp)
2000012c:	02010113          	addi	sp,sp,32
20000130:	00008067          	ret

20000134 <init_gpio_port_e>:
///////////////////////////////////////////////////////////////////////////////
// Assignment 1: Configure GPIO Port E so that all pins [0:15] are set as 
//               output, 2MHz, push-pull.
///////////////////////////////////////////////////////////////////////////////
void init_gpio_port_e()
{
20000134:	fd010113          	addi	sp,sp,-48
20000138:	02112623          	sw	ra,44(sp)
2000013c:	02812423          	sw	s0,40(sp)
20000140:	03010413          	addi	s0,sp,48
    // Configure pins 0-7 in CFGLR
    for (int pin = 0; pin < 8; pin++) {
20000144:	fe042623          	sw	zero,-20(s0)
20000148:	0680006f          	j	200001b0 <init_gpio_port_e+0x7c>
        int shift = 4 * pin;
2000014c:	fec42783          	lw	a5,-20(s0)
20000150:	00279793          	slli	a5,a5,0x2
20000154:	fcf42c23          	sw	a5,-40(s0)
        int mask = 0xF << shift;
20000158:	fd842783          	lw	a5,-40(s0)
2000015c:	00f00713          	li	a4,15
20000160:	00f717b3          	sll	a5,a4,a5
20000164:	fcf42a23          	sw	a5,-44(s0)
        unsigned int cnfMode = 0b0010 << shift;  // 0010 = output, 2MHz, push-pull
20000168:	fd842783          	lw	a5,-40(s0)
2000016c:	00200713          	li	a4,2
20000170:	00f717b3          	sll	a5,a4,a5
20000174:	fcf42823          	sw	a5,-48(s0)
        *GPIO_E_CFGLR = (*GPIO_E_CFGLR & ~mask) | cnfMode;
20000178:	400127b7          	lui	a5,0x40012
2000017c:	80078793          	addi	a5,a5,-2048 # 40011800 <__stack_top+0x2000bd8c>
20000180:	0007a783          	lw	a5,0(a5)
20000184:	fd442703          	lw	a4,-44(s0)
20000188:	fff74713          	not	a4,a4
2000018c:	00e7f6b3          	and	a3,a5,a4
20000190:	400127b7          	lui	a5,0x40012
20000194:	80078793          	addi	a5,a5,-2048 # 40011800 <__stack_top+0x2000bd8c>
20000198:	fd042703          	lw	a4,-48(s0)
2000019c:	00e6e733          	or	a4,a3,a4
200001a0:	00e7a023          	sw	a4,0(a5)
    for (int pin = 0; pin < 8; pin++) {
200001a4:	fec42783          	lw	a5,-20(s0)
200001a8:	00178793          	addi	a5,a5,1
200001ac:	fef42623          	sw	a5,-20(s0)
200001b0:	fec42703          	lw	a4,-20(s0)
200001b4:	00700793          	li	a5,7
200001b8:	f8e7dae3          	bge	a5,a4,2000014c <init_gpio_port_e+0x18>
    }
    
    // Configure pins 8-15 in CFGHR
    for (int pin = 8; pin < 16; pin++) {
200001bc:	00800793          	li	a5,8
200001c0:	fef42423          	sw	a5,-24(s0)
200001c4:	06c0006f          	j	20000230 <init_gpio_port_e+0xfc>
        int shift = 4 * (pin - 8);  // Shift within CFGHR register
200001c8:	fe842783          	lw	a5,-24(s0)
200001cc:	ff878793          	addi	a5,a5,-8
200001d0:	00279793          	slli	a5,a5,0x2
200001d4:	fef42223          	sw	a5,-28(s0)
        int mask = 0xF << shift;
200001d8:	fe442783          	lw	a5,-28(s0)
200001dc:	00f00713          	li	a4,15
200001e0:	00f717b3          	sll	a5,a4,a5
200001e4:	fef42023          	sw	a5,-32(s0)
        unsigned int cnfMode = 0b0010 << shift;  // 0010 = output, 2MHz, push-pull
200001e8:	fe442783          	lw	a5,-28(s0)
200001ec:	00200713          	li	a4,2
200001f0:	00f717b3          	sll	a5,a4,a5
200001f4:	fcf42e23          	sw	a5,-36(s0)
        *GPIO_E_CFGHR = (*GPIO_E_CFGHR & ~mask) | cnfMode;
200001f8:	400127b7          	lui	a5,0x40012
200001fc:	80478793          	addi	a5,a5,-2044 # 40011804 <__stack_top+0x2000bd90>
20000200:	0007a783          	lw	a5,0(a5)
20000204:	fe042703          	lw	a4,-32(s0)
20000208:	fff74713          	not	a4,a4
2000020c:	00e7f6b3          	and	a3,a5,a4
20000210:	400127b7          	lui	a5,0x40012
20000214:	80478793          	addi	a5,a5,-2044 # 40011804 <__stack_top+0x2000bd90>
20000218:	fdc42703          	lw	a4,-36(s0)
2000021c:	00e6e733          	or	a4,a3,a4
20000220:	00e7a023          	sw	a4,0(a5)
    for (int pin = 8; pin < 16; pin++) {
20000224:	fe842783          	lw	a5,-24(s0)
20000228:	00178793          	addi	a5,a5,1
2000022c:	fef42423          	sw	a5,-24(s0)
20000230:	fe842703          	lw	a4,-24(s0)
20000234:	00f00793          	li	a5,15
20000238:	f8e7d8e3          	bge	a5,a4,200001c8 <init_gpio_port_e+0x94>
    }
    
}
2000023c:	00000013          	nop
20000240:	00000013          	nop
20000244:	02c12083          	lw	ra,44(sp)
20000248:	02812403          	lw	s0,40(sp)
2000024c:	03010113          	addi	sp,sp,48
20000250:	00008067          	ret

20000254 <ascii_write_controller>:
// Input: command_or_data - the byte to write to the display. This can be 
//                          either a command or data, depending on the state 
//                          of the control lines.
///////////////////////////////////////////////////////////////////////////////
void ascii_write_controller(uint8_t command_or_data)
{
20000254:	fe010113          	addi	sp,sp,-32
20000258:	00112e23          	sw	ra,28(sp)
2000025c:	00812c23          	sw	s0,24(sp)
20000260:	02010413          	addi	s0,sp,32
20000264:	00050793          	mv	a5,a0
20000268:	fef407a3          	sb	a5,-17(s0)
    //                 Then write the command or data to GPIOE_OUTDR[8..15].
    //                 Hint: Make sure your data write does not overwrite 
    //                 the control bits in GPIOE_OUTDR[0..7]!
    ///////////////////////////////////////////////////////////////////////////
    // Your code here
    *GPIO_E_OUTDR |= (1 << 2);
2000026c:	400127b7          	lui	a5,0x40012
20000270:	80c78793          	addi	a5,a5,-2036 # 4001180c <__stack_top+0x2000bd98>
20000274:	0007d783          	lhu	a5,0(a5)
20000278:	01079713          	slli	a4,a5,0x10
2000027c:	01075713          	srli	a4,a4,0x10
20000280:	400127b7          	lui	a5,0x40012
20000284:	80c78793          	addi	a5,a5,-2036 # 4001180c <__stack_top+0x2000bd98>
20000288:	00476713          	ori	a4,a4,4
2000028c:	01071713          	slli	a4,a4,0x10
20000290:	01075713          	srli	a4,a4,0x10
20000294:	00e79023          	sh	a4,0(a5)
    *GPIO_E_OUTDR |= (command_or_data << 8);
20000298:	400127b7          	lui	a5,0x40012
2000029c:	80c78793          	addi	a5,a5,-2036 # 4001180c <__stack_top+0x2000bd98>
200002a0:	0007d783          	lhu	a5,0(a5)
200002a4:	01079793          	slli	a5,a5,0x10
200002a8:	0107d793          	srli	a5,a5,0x10
200002ac:	01079713          	slli	a4,a5,0x10
200002b0:	41075713          	srai	a4,a4,0x10
200002b4:	fef44783          	lbu	a5,-17(s0)
200002b8:	01079793          	slli	a5,a5,0x10
200002bc:	4107d793          	srai	a5,a5,0x10
200002c0:	00879793          	slli	a5,a5,0x8
200002c4:	01079793          	slli	a5,a5,0x10
200002c8:	4107d793          	srai	a5,a5,0x10
200002cc:	00f767b3          	or	a5,a4,a5
200002d0:	01079713          	slli	a4,a5,0x10
200002d4:	41075713          	srai	a4,a4,0x10
200002d8:	400127b7          	lui	a5,0x40012
200002dc:	80c78793          	addi	a5,a5,-2036 # 4001180c <__stack_top+0x2000bd98>
200002e0:	01071713          	slli	a4,a4,0x10
200002e4:	01075713          	srli	a4,a4,0x10
200002e8:	00e79023          	sh	a4,0(a5)
    check_assignment_2_1(command_or_data);
200002ec:	fef44783          	lbu	a5,-17(s0)
200002f0:	00078513          	mv	a0,a5
200002f4:	400000ef          	jal	200006f4 <check_assignment_2_1>
    ///////////////////////////////////////////////////////////////////////////
    // Assignment 2.2: Wait for at least  max(tsu2, tw) = 230ns, then set 
    //                 E = 0 to end the write cycle.
    ///////////////////////////////////////////////////////////////////////////
    // Your code here
    delay_ns(500);
200002f8:	1f400513          	li	a0,500
200002fc:	00000593          	li	a1,0
20000300:	d39ff0ef          	jal	20000038 <delay_ns>
    *GPIO_E_OUTDR &= ~100;
20000304:	400127b7          	lui	a5,0x40012
20000308:	80c78793          	addi	a5,a5,-2036 # 4001180c <__stack_top+0x2000bd98>
2000030c:	0007d783          	lhu	a5,0(a5)
20000310:	01079713          	slli	a4,a5,0x10
20000314:	01075713          	srli	a4,a4,0x10
20000318:	400127b7          	lui	a5,0x40012
2000031c:	80c78793          	addi	a5,a5,-2036 # 4001180c <__stack_top+0x2000bd98>
20000320:	f9b77713          	andi	a4,a4,-101
20000324:	01071713          	slli	a4,a4,0x10
20000328:	01075713          	srli	a4,a4,0x10
2000032c:	00e79023          	sh	a4,0(a5)
    check_assignment_2_2();
20000330:	498000ef          	jal	200007c8 <check_assignment_2_2>
    //is the time it takes for the display to process the command or data after 
    // the write cycle has ended.
    //
    // 10ns is the time it takes to execute 2 instructions, so that time will
    // already have passed by the this function returns. 
}
20000334:	00000013          	nop
20000338:	01c12083          	lw	ra,28(sp)
2000033c:	01812403          	lw	s0,24(sp)
20000340:	02010113          	addi	sp,sp,32
20000344:	00008067          	ret

20000348 <ascii_write_command>:

///////////////////////////////////////////////////////////////////////////////
// Assignment 3: Implement code for writing a command to the display.
///////////////////////////////////////////////////////////////////////////////
void ascii_write_command(uint8_t command)
{
20000348:	fe010113          	addi	sp,sp,-32
2000034c:	00112e23          	sw	ra,28(sp)
20000350:	00812c23          	sw	s0,24(sp)
20000354:	02010413          	addi	s0,sp,32
20000358:	00050793          	mv	a5,a0
2000035c:	fef407a3          	sb	a5,-17(s0)
    // TODO: Set RS = 0 and RW = 0 to indicate a command write, then call
    //       ascii_write_controller to write the command to the display.
    *GPIO_E_OUTDR &= ~(0x3);  // or ~3
20000360:	400127b7          	lui	a5,0x40012
20000364:	80c78793          	addi	a5,a5,-2036 # 4001180c <__stack_top+0x2000bd98>
20000368:	0007d783          	lhu	a5,0(a5)
2000036c:	01079713          	slli	a4,a5,0x10
20000370:	01075713          	srli	a4,a4,0x10
20000374:	400127b7          	lui	a5,0x40012
20000378:	80c78793          	addi	a5,a5,-2036 # 4001180c <__stack_top+0x2000bd98>
2000037c:	ffc77713          	andi	a4,a4,-4
20000380:	01071713          	slli	a4,a4,0x10
20000384:	01075713          	srli	a4,a4,0x10
20000388:	00e79023          	sh	a4,0(a5)
    ascii_write_controller(command);
2000038c:	fef44783          	lbu	a5,-17(s0)
20000390:	00078513          	mv	a0,a5
20000394:	ec1ff0ef          	jal	20000254 <ascii_write_controller>
}
20000398:	00000013          	nop
2000039c:	01c12083          	lw	ra,28(sp)
200003a0:	01812403          	lw	s0,24(sp)
200003a4:	02010113          	addi	sp,sp,32
200003a8:	00008067          	ret

200003ac <ascii_read_status>:
//               diagram in the quickguide, to see how this works.
//
// Output: 1 if busy, 0 if ready for new command.
///////////////////////////////////////////////////////////////////////////////
uint8_t ascii_read_status()
{
200003ac:	fc010113          	addi	sp,sp,-64
200003b0:	02112e23          	sw	ra,60(sp)
200003b4:	02812c23          	sw	s0,56(sp)
200003b8:	04010413          	addi	s0,sp,64
    //                 input, floating.
    ///////////////////////////////////////////////////////////////////////////
    // Your code here

    // Configure pins 8-15 in CFGHR
    for (int pin = 8; pin < 16; pin++) {
200003bc:	00800793          	li	a5,8
200003c0:	fef42623          	sw	a5,-20(s0)
200003c4:	0780006f          	j	2000043c <ascii_read_status+0x90>
        int shift = 4 * (pin - 8);  // Shift within CFGHR register
200003c8:	fec42783          	lw	a5,-20(s0)
200003cc:	ff878793          	addi	a5,a5,-8
200003d0:	00279793          	slli	a5,a5,0x2
200003d4:	fcf42a23          	sw	a5,-44(s0)
        shift += 1;
200003d8:	fd442783          	lw	a5,-44(s0)
200003dc:	00178793          	addi	a5,a5,1
200003e0:	fcf42a23          	sw	a5,-44(s0)
        int mask = 0xF << shift;
200003e4:	fd442783          	lw	a5,-44(s0)
200003e8:	00f00713          	li	a4,15
200003ec:	00f717b3          	sll	a5,a4,a5
200003f0:	fcf42823          	sw	a5,-48(s0)
        unsigned int cnfMode = 0b0010 << shift;  // 0100 = input, floating
200003f4:	fd442783          	lw	a5,-44(s0)
200003f8:	00200713          	li	a4,2
200003fc:	00f717b3          	sll	a5,a4,a5
20000400:	fcf42623          	sw	a5,-52(s0)
        *GPIO_E_CFGHR = (*GPIO_E_CFGHR & ~mask) | cnfMode;
20000404:	400127b7          	lui	a5,0x40012
20000408:	80478793          	addi	a5,a5,-2044 # 40011804 <__stack_top+0x2000bd90>
2000040c:	0007a783          	lw	a5,0(a5)
20000410:	fd042703          	lw	a4,-48(s0)
20000414:	fff74713          	not	a4,a4
20000418:	00e7f6b3          	and	a3,a5,a4
2000041c:	400127b7          	lui	a5,0x40012
20000420:	80478793          	addi	a5,a5,-2044 # 40011804 <__stack_top+0x2000bd90>
20000424:	fcc42703          	lw	a4,-52(s0)
20000428:	00e6e733          	or	a4,a3,a4
2000042c:	00e7a023          	sw	a4,0(a5)
    for (int pin = 8; pin < 16; pin++) {
20000430:	fec42783          	lw	a5,-20(s0)
20000434:	00178793          	addi	a5,a5,1
20000438:	fef42623          	sw	a5,-20(s0)
2000043c:	fec42703          	lw	a4,-20(s0)
20000440:	00f00793          	li	a5,15
20000444:	f8e7d2e3          	bge	a5,a4,200003c8 <ascii_read_status+0x1c>
    }
    check_assignment_4_1(); 
20000448:	478000ef          	jal	200008c0 <check_assignment_4_1>
    ///////////////////////////////////////////////////////////////////////////
    // Assignment 4.2: Set RS = 0 (command) and RW = 1 (read) to indicate 
    //                 a status read.
    ///////////////////////////////////////////////////////////////////////////
    // Your code here
    *GPIO_E_OUTDR = (*GPIO_E_OUTDR & ~(1 << 0)) | (1 << 1);
2000044c:	400127b7          	lui	a5,0x40012
20000450:	80c78793          	addi	a5,a5,-2036 # 4001180c <__stack_top+0x2000bd98>
20000454:	0007d783          	lhu	a5,0(a5)
20000458:	01079793          	slli	a5,a5,0x10
2000045c:	0107d793          	srli	a5,a5,0x10
20000460:	01079793          	slli	a5,a5,0x10
20000464:	4107d793          	srai	a5,a5,0x10
20000468:	ffc7f793          	andi	a5,a5,-4
2000046c:	01079793          	slli	a5,a5,0x10
20000470:	4107d793          	srai	a5,a5,0x10
20000474:	0027e793          	ori	a5,a5,2
20000478:	01079713          	slli	a4,a5,0x10
2000047c:	41075713          	srai	a4,a4,0x10
20000480:	400127b7          	lui	a5,0x40012
20000484:	80c78793          	addi	a5,a5,-2036 # 4001180c <__stack_top+0x2000bd98>
20000488:	01071713          	slli	a4,a4,0x10
2000048c:	01075713          	srli	a4,a4,0x10
20000490:	00e79023          	sh	a4,0(a5)
    check_assignment_4_2(); 
20000494:	4bc000ef          	jal	20000950 <check_assignment_4_2>
    //                 wait for tD = 360ns
    //                 then read the status byte from GPIO Port E INDR register
    //                 pins [8:15]
    ///////////////////////////////////////////////////////////////////////////
    // Your code here
    *GPIO_E_OUTDR |= (1 << 2);
20000498:	400127b7          	lui	a5,0x40012
2000049c:	80c78793          	addi	a5,a5,-2036 # 4001180c <__stack_top+0x2000bd98>
200004a0:	0007d783          	lhu	a5,0(a5)
200004a4:	01079713          	slli	a4,a5,0x10
200004a8:	01075713          	srli	a4,a4,0x10
200004ac:	400127b7          	lui	a5,0x40012
200004b0:	80c78793          	addi	a5,a5,-2036 # 4001180c <__stack_top+0x2000bd98>
200004b4:	00476713          	ori	a4,a4,4
200004b8:	01071713          	slli	a4,a4,0x10
200004bc:	01075713          	srli	a4,a4,0x10
200004c0:	00e79023          	sh	a4,0(a5)
    delay_ns(500);
200004c4:	1f400513          	li	a0,500
200004c8:	00000593          	li	a1,0
200004cc:	b6dff0ef          	jal	20000038 <delay_ns>
    uint8_t status_byte = (uint8_t)((*GPIO_E_INDR >> 8) & 0xFF);
200004d0:	400127b7          	lui	a5,0x40012
200004d4:	80878793          	addi	a5,a5,-2040 # 40011808 <__stack_top+0x2000bd94>
200004d8:	0007a783          	lw	a5,0(a5)
200004dc:	0087d793          	srli	a5,a5,0x8
200004e0:	fef403a3          	sb	a5,-25(s0)
    check_assignment_4_3(); 
200004e4:	4fc000ef          	jal	200009e0 <check_assignment_4_3>
    ///////////////////////////////////////////////////////////////////////////
    // Assignment 4.4: Set E = 0 to end the read cycle.
    ///////////////////////////////////////////////////////////////////////////
    // Your code here
    *GPIO_E_OUTDR &= ~100;
200004e8:	400127b7          	lui	a5,0x40012
200004ec:	80c78793          	addi	a5,a5,-2036 # 4001180c <__stack_top+0x2000bd98>
200004f0:	0007d783          	lhu	a5,0(a5)
200004f4:	01079713          	slli	a4,a5,0x10
200004f8:	01075713          	srli	a4,a4,0x10
200004fc:	400127b7          	lui	a5,0x40012
20000500:	80c78793          	addi	a5,a5,-2036 # 4001180c <__stack_top+0x2000bd98>
20000504:	f9b77713          	andi	a4,a4,-101
20000508:	01071713          	slli	a4,a4,0x10
2000050c:	01075713          	srli	a4,a4,0x10
20000510:	00e79023          	sh	a4,0(a5)
    check_assignment_4_4(); 
20000514:	548000ef          	jal	20000a5c <check_assignment_4_4>
    ///////////////////////////////////////////////////////////////////////////
    // Assignment 4.5: Configure GPIO Port E pins [8:15] back to output,
    //                 2MHz, push-pull.
    ///////////////////////////////////////////////////////////////////////////
    // Your code here
    for (int pin = 8; pin < 16; pin++) {
20000518:	00800793          	li	a5,8
2000051c:	fef42423          	sw	a5,-24(s0)
20000520:	06c0006f          	j	2000058c <ascii_read_status+0x1e0>
        int shift = 4 * (pin - 8);
20000524:	fe842783          	lw	a5,-24(s0)
20000528:	ff878793          	addi	a5,a5,-8
2000052c:	00279793          	slli	a5,a5,0x2
20000530:	fef42023          	sw	a5,-32(s0)
        int mask = 0xF << shift;
20000534:	fe042783          	lw	a5,-32(s0)
20000538:	00f00713          	li	a4,15
2000053c:	00f717b3          	sll	a5,a4,a5
20000540:	fcf42e23          	sw	a5,-36(s0)
        unsigned int cnfMode = 0b0010 << shift;  // 0010 = output 2MHz push-pull
20000544:	fe042783          	lw	a5,-32(s0)
20000548:	00200713          	li	a4,2
2000054c:	00f717b3          	sll	a5,a4,a5
20000550:	fcf42c23          	sw	a5,-40(s0)
        *GPIO_E_CFGHR = (*GPIO_E_CFGHR & ~mask) | cnfMode;
20000554:	400127b7          	lui	a5,0x40012
20000558:	80478793          	addi	a5,a5,-2044 # 40011804 <__stack_top+0x2000bd90>
2000055c:	0007a783          	lw	a5,0(a5)
20000560:	fdc42703          	lw	a4,-36(s0)
20000564:	fff74713          	not	a4,a4
20000568:	00e7f6b3          	and	a3,a5,a4
2000056c:	400127b7          	lui	a5,0x40012
20000570:	80478793          	addi	a5,a5,-2044 # 40011804 <__stack_top+0x2000bd90>
20000574:	fd842703          	lw	a4,-40(s0)
20000578:	00e6e733          	or	a4,a3,a4
2000057c:	00e7a023          	sw	a4,0(a5)
    for (int pin = 8; pin < 16; pin++) {
20000580:	fe842783          	lw	a5,-24(s0)
20000584:	00178793          	addi	a5,a5,1
20000588:	fef42423          	sw	a5,-24(s0)
2000058c:	fe842703          	lw	a4,-24(s0)
20000590:	00f00793          	li	a5,15
20000594:	f8e7d8e3          	bge	a5,a4,20000524 <ascii_read_status+0x178>
    }
    check_assignment_4_5(); 
20000598:	540000ef          	jal	20000ad8 <check_assignment_4_5>

    ///////////////////////////////////////////////////////////////////////////
    // Assignment 4.6: Return the busy flag (bit 7 of the status byte)
    ///////////////////////////////////////////////////////////////////////////
    return (status_byte & 0x80) ? 1 : 0;  // Bit 7 = busy flag
2000059c:	fe744783          	lbu	a5,-25(s0)
200005a0:	0077d793          	srli	a5,a5,0x7
200005a4:	0ff7f793          	zext.b	a5,a5
}
200005a8:	00078513          	mv	a0,a5
200005ac:	03c12083          	lw	ra,60(sp)
200005b0:	03812403          	lw	s0,56(sp)
200005b4:	04010113          	addi	sp,sp,64
200005b8:	00008067          	ret

200005bc <ascii_write_data>:

///////////////////////////////////////////////////////////////////////////////
// Assignment 5: Implement code for writing a chareacter (data) to the display.
///////////////////////////////////////////////////////////////////////////////
void ascii_write_data(uint8_t data)
{
200005bc:	fe010113          	addi	sp,sp,-32
200005c0:	00112e23          	sw	ra,28(sp)
200005c4:	00812c23          	sw	s0,24(sp)
200005c8:	02010413          	addi	s0,sp,32
200005cc:	00050793          	mv	a5,a0
200005d0:	fef407a3          	sb	a5,-17(s0)
    // TODO: Set RS = 1 (data) and RW = 0 (write) to indicate a command write, 
    //       then call ascii_write_controller to write the character to the 
    //       display.
    *GPIO_E_OUTDR = (*GPIO_E_OUTDR & ~(1 << 1)) | (1 << 0);
200005d4:	400127b7          	lui	a5,0x40012
200005d8:	80c78793          	addi	a5,a5,-2036 # 4001180c <__stack_top+0x2000bd98>
200005dc:	0007d783          	lhu	a5,0(a5)
200005e0:	01079793          	slli	a5,a5,0x10
200005e4:	0107d793          	srli	a5,a5,0x10
200005e8:	01079793          	slli	a5,a5,0x10
200005ec:	4107d793          	srai	a5,a5,0x10
200005f0:	ffc7f793          	andi	a5,a5,-4
200005f4:	01079793          	slli	a5,a5,0x10
200005f8:	4107d793          	srai	a5,a5,0x10
200005fc:	0017e793          	ori	a5,a5,1
20000600:	01079713          	slli	a4,a5,0x10
20000604:	41075713          	srai	a4,a4,0x10
20000608:	400127b7          	lui	a5,0x40012
2000060c:	80c78793          	addi	a5,a5,-2036 # 4001180c <__stack_top+0x2000bd98>
20000610:	01071713          	slli	a4,a4,0x10
20000614:	01075713          	srli	a4,a4,0x10
20000618:	00e79023          	sh	a4,0(a5)
    ascii_write_controller(data);
2000061c:	fef44783          	lbu	a5,-17(s0)
20000620:	00078513          	mv	a0,a5
20000624:	c31ff0ef          	jal	20000254 <ascii_write_controller>

}
20000628:	00000013          	nop
2000062c:	01c12083          	lw	ra,28(sp)
20000630:	01812403          	lw	s0,24(sp)
20000634:	02010113          	addi	sp,sp,32
20000638:	00008067          	ret

2000063c <check_assignment_1>:
void ascii_write_data(uint8_t data);
void delay_us(uint32_t us);
void delay_ms(uint32_t us);

int assignment_1_checked = 0; 
void check_assignment_1() {
2000063c:	ff010113          	addi	sp,sp,-16
20000640:	00112623          	sw	ra,12(sp)
20000644:	00812423          	sw	s0,8(sp)
20000648:	01010413          	addi	s0,sp,16
    if(assignment_1_checked) return; // Only check once
2000064c:	200057b7          	lui	a5,0x20005
20000650:	e3c7a783          	lw	a5,-452(a5) # 20004e3c <assignment_1_checked>
20000654:	08079663          	bnez	a5,200006e0 <check_assignment_1+0xa4>
    assignment_1_checked = 1;
20000658:	200057b7          	lui	a5,0x20005
2000065c:	00100713          	li	a4,1
20000660:	e2e7ae23          	sw	a4,-452(a5) # 20004e3c <assignment_1_checked>
    printf("Checking assignment 1...");
20000664:	200047b7          	lui	a5,0x20004
20000668:	68c78513          	addi	a0,a5,1676 # 2000468c <_malloc_usable_size_r+0x1c>
2000066c:	299010ef          	jal	20002104 <iprintf>
    if (*GPIOE_CFGLR != 0x22222222 || *GPIOE_CFGHR != 0x22222222) {
20000670:	400127b7          	lui	a5,0x40012
20000674:	80078793          	addi	a5,a5,-2048 # 40011800 <__stack_top+0x2000bd8c>
20000678:	0007a703          	lw	a4,0(a5)
2000067c:	222227b7          	lui	a5,0x22222
20000680:	22278793          	addi	a5,a5,546 # 22222222 <__stack_top+0x221c7ae>
20000684:	00f71e63          	bne	a4,a5,200006a0 <check_assignment_1+0x64>
20000688:	400127b7          	lui	a5,0x40012
2000068c:	80478793          	addi	a5,a5,-2044 # 40011804 <__stack_top+0x2000bd90>
20000690:	0007a703          	lw	a4,0(a5)
20000694:	222227b7          	lui	a5,0x22222
20000698:	22278793          	addi	a5,a5,546 # 22222222 <__stack_top+0x221c7ae>
2000069c:	02f70a63          	beq	a4,a5,200006d0 <check_assignment_1+0x94>
        printf("\nAssignment 1 is not correct CFGLR=0x%08X, CFGHR=0x%08X.\n", *GPIOE_CFGLR, *GPIOE_CFGHR);
200006a0:	400127b7          	lui	a5,0x40012
200006a4:	80078793          	addi	a5,a5,-2048 # 40011800 <__stack_top+0x2000bd8c>
200006a8:	0007a703          	lw	a4,0(a5)
200006ac:	400127b7          	lui	a5,0x40012
200006b0:	80478793          	addi	a5,a5,-2044 # 40011804 <__stack_top+0x2000bd90>
200006b4:	0007a783          	lw	a5,0(a5)
200006b8:	00078613          	mv	a2,a5
200006bc:	00070593          	mv	a1,a4
200006c0:	200047b7          	lui	a5,0x20004
200006c4:	6a878513          	addi	a0,a5,1704 # 200046a8 <_malloc_usable_size_r+0x38>
200006c8:	23d010ef          	jal	20002104 <iprintf>
200006cc:	0180006f          	j	200006e4 <check_assignment_1+0xa8>
    } else {
        printf("PASSED!\n");
200006d0:	200047b7          	lui	a5,0x20004
200006d4:	6e478513          	addi	a0,a5,1764 # 200046e4 <_malloc_usable_size_r+0x74>
200006d8:	3a1010ef          	jal	20002278 <puts>
200006dc:	0080006f          	j	200006e4 <check_assignment_1+0xa8>
    if(assignment_1_checked) return; // Only check once
200006e0:	00000013          	nop
    }
}
200006e4:	00c12083          	lw	ra,12(sp)
200006e8:	00812403          	lw	s0,8(sp)
200006ec:	01010113          	addi	sp,sp,16
200006f0:	00008067          	ret

200006f4 <check_assignment_2_1>:

int assignment_2_1_checked = 0;
void check_assignment_2_1(uint8_t command_or_data) {
200006f4:	fe010113          	addi	sp,sp,-32
200006f8:	00112e23          	sw	ra,28(sp)
200006fc:	00812c23          	sw	s0,24(sp)
20000700:	02010413          	addi	s0,sp,32
20000704:	00050793          	mv	a5,a0
20000708:	fef407a3          	sb	a5,-17(s0)
    if(assignment_2_1_checked) return; // Only check once
2000070c:	200057b7          	lui	a5,0x20005
20000710:	e407a783          	lw	a5,-448(a5) # 20004e40 <assignment_2_1_checked>
20000714:	0a079063          	bnez	a5,200007b4 <check_assignment_2_1+0xc0>
    assignment_2_1_checked = 1;
20000718:	200057b7          	lui	a5,0x20005
2000071c:	00100713          	li	a4,1
20000720:	e4e7a023          	sw	a4,-448(a5) # 20004e40 <assignment_2_1_checked>
    printf("Checking assignment 2.1...");
20000724:	200047b7          	lui	a5,0x20004
20000728:	6ec78513          	addi	a0,a5,1772 # 200046ec <_malloc_usable_size_r+0x7c>
2000072c:	1d9010ef          	jal	20002104 <iprintf>
    if((*GPIOE_OUTDR & EN) == 0) {
20000730:	400127b7          	lui	a5,0x40012
20000734:	80c78793          	addi	a5,a5,-2036 # 4001180c <__stack_top+0x2000bd98>
20000738:	0007a783          	lw	a5,0(a5)
2000073c:	0047f793          	andi	a5,a5,4
20000740:	02079263          	bnez	a5,20000764 <check_assignment_2_1+0x70>
        printf("\nAssignment 2.1 is not correct, Enable not set.\n", *GPIOE_OUTDR);
20000744:	400127b7          	lui	a5,0x40012
20000748:	80c78793          	addi	a5,a5,-2036 # 4001180c <__stack_top+0x2000bd98>
2000074c:	0007a783          	lw	a5,0(a5)
20000750:	00078593          	mv	a1,a5
20000754:	200047b7          	lui	a5,0x20004
20000758:	70878513          	addi	a0,a5,1800 # 20004708 <_malloc_usable_size_r+0x98>
2000075c:	1a9010ef          	jal	20002104 <iprintf>
20000760:	0580006f          	j	200007b8 <check_assignment_2_1+0xc4>
    } 
    else if((*GPIOE_OUTDR >> 8) != command_or_data) {
20000764:	400127b7          	lui	a5,0x40012
20000768:	80c78793          	addi	a5,a5,-2036 # 4001180c <__stack_top+0x2000bd98>
2000076c:	0007a783          	lw	a5,0(a5)
20000770:	0087d713          	srli	a4,a5,0x8
20000774:	fef44783          	lbu	a5,-17(s0)
20000778:	02f70663          	beq	a4,a5,200007a4 <check_assignment_2_1+0xb0>
        printf("\nAssignment 2.1 is not correct, Output data is 0x%02X, expected 0x%02X.\n", *GPIOE_OUTDR, command_or_data);
2000077c:	400127b7          	lui	a5,0x40012
20000780:	80c78793          	addi	a5,a5,-2036 # 4001180c <__stack_top+0x2000bd98>
20000784:	0007a783          	lw	a5,0(a5)
20000788:	fef44703          	lbu	a4,-17(s0)
2000078c:	00070613          	mv	a2,a4
20000790:	00078593          	mv	a1,a5
20000794:	200047b7          	lui	a5,0x20004
20000798:	73c78513          	addi	a0,a5,1852 # 2000473c <_malloc_usable_size_r+0xcc>
2000079c:	169010ef          	jal	20002104 <iprintf>
200007a0:	0180006f          	j	200007b8 <check_assignment_2_1+0xc4>
    }
    else {
        printf("PASSED!\n");
200007a4:	200047b7          	lui	a5,0x20004
200007a8:	6e478513          	addi	a0,a5,1764 # 200046e4 <_malloc_usable_size_r+0x74>
200007ac:	2cd010ef          	jal	20002278 <puts>
200007b0:	0080006f          	j	200007b8 <check_assignment_2_1+0xc4>
    if(assignment_2_1_checked) return; // Only check once
200007b4:	00000013          	nop
    }
}
200007b8:	01c12083          	lw	ra,28(sp)
200007bc:	01812403          	lw	s0,24(sp)
200007c0:	02010113          	addi	sp,sp,32
200007c4:	00008067          	ret

200007c8 <check_assignment_2_2>:

int assignment_2_2_checked = 0;
void check_assignment_2_2() {
200007c8:	ff010113          	addi	sp,sp,-16
200007cc:	00112623          	sw	ra,12(sp)
200007d0:	00812423          	sw	s0,8(sp)
200007d4:	01010413          	addi	s0,sp,16
    if(assignment_2_2_checked) return; // Only check once
200007d8:	200057b7          	lui	a5,0x20005
200007dc:	e447a783          	lw	a5,-444(a5) # 20004e44 <assignment_2_2_checked>
200007e0:	04079863          	bnez	a5,20000830 <check_assignment_2_2+0x68>
    assignment_2_2_checked = 1; 
200007e4:	200057b7          	lui	a5,0x20005
200007e8:	00100713          	li	a4,1
200007ec:	e4e7a223          	sw	a4,-444(a5) # 20004e44 <assignment_2_2_checked>
    printf("Checking assignment 2.2...");
200007f0:	200047b7          	lui	a5,0x20004
200007f4:	78878513          	addi	a0,a5,1928 # 20004788 <_malloc_usable_size_r+0x118>
200007f8:	10d010ef          	jal	20002104 <iprintf>
    if((*GPIOE_OUTDR & EN) != 0) {
200007fc:	400127b7          	lui	a5,0x40012
20000800:	80c78793          	addi	a5,a5,-2036 # 4001180c <__stack_top+0x2000bd98>
20000804:	0007a783          	lw	a5,0(a5)
20000808:	0047f793          	andi	a5,a5,4
2000080c:	00078a63          	beqz	a5,20000820 <check_assignment_2_2+0x58>
        printf("\nAssignment 2.2 is not correct, Enable is still set.\n");
20000810:	200047b7          	lui	a5,0x20004
20000814:	7a478513          	addi	a0,a5,1956 # 200047a4 <_malloc_usable_size_r+0x134>
20000818:	261010ef          	jal	20002278 <puts>
2000081c:	0180006f          	j	20000834 <check_assignment_2_2+0x6c>
    } 
    else {
        printf("PASSED!\n");
20000820:	200047b7          	lui	a5,0x20004
20000824:	6e478513          	addi	a0,a5,1764 # 200046e4 <_malloc_usable_size_r+0x74>
20000828:	251010ef          	jal	20002278 <puts>
2000082c:	0080006f          	j	20000834 <check_assignment_2_2+0x6c>
    if(assignment_2_2_checked) return; // Only check once
20000830:	00000013          	nop
    }
}
20000834:	00c12083          	lw	ra,12(sp)
20000838:	00812403          	lw	s0,8(sp)
2000083c:	01010113          	addi	sp,sp,16
20000840:	00008067          	ret

20000844 <check_assignment_3>:

int assignment_3_checked = 0;
void check_assignment_3() {
20000844:	ff010113          	addi	sp,sp,-16
20000848:	00112623          	sw	ra,12(sp)
2000084c:	00812423          	sw	s0,8(sp)
20000850:	01010413          	addi	s0,sp,16
    if(assignment_3_checked) return; // Only check once
20000854:	200057b7          	lui	a5,0x20005
20000858:	e487a783          	lw	a5,-440(a5) # 20004e48 <assignment_3_checked>
2000085c:	04079863          	bnez	a5,200008ac <check_assignment_3+0x68>
    assignment_3_checked = 1;
20000860:	200057b7          	lui	a5,0x20005
20000864:	00100713          	li	a4,1
20000868:	e4e7a423          	sw	a4,-440(a5) # 20004e48 <assignment_3_checked>
    printf("Checking assignment 3...");
2000086c:	200047b7          	lui	a5,0x20004
20000870:	7dc78513          	addi	a0,a5,2012 # 200047dc <_malloc_usable_size_r+0x16c>
20000874:	091010ef          	jal	20002104 <iprintf>
    if((*GPIOE_OUTDR & (RS | RW | EN)) != 0) {
20000878:	400127b7          	lui	a5,0x40012
2000087c:	80c78793          	addi	a5,a5,-2036 # 4001180c <__stack_top+0x2000bd98>
20000880:	0007a783          	lw	a5,0(a5)
20000884:	0077f793          	andi	a5,a5,7
20000888:	00078a63          	beqz	a5,2000089c <check_assignment_3+0x58>
        printf("\nAssignment 3 is not correct, RS, RW, or E is set.\n");
2000088c:	200047b7          	lui	a5,0x20004
20000890:	7f878513          	addi	a0,a5,2040 # 200047f8 <_malloc_usable_size_r+0x188>
20000894:	1e5010ef          	jal	20002278 <puts>
20000898:	0180006f          	j	200008b0 <check_assignment_3+0x6c>
    } 
    else {
        printf("PASSED!\n");
2000089c:	200047b7          	lui	a5,0x20004
200008a0:	6e478513          	addi	a0,a5,1764 # 200046e4 <_malloc_usable_size_r+0x74>
200008a4:	1d5010ef          	jal	20002278 <puts>
200008a8:	0080006f          	j	200008b0 <check_assignment_3+0x6c>
    if(assignment_3_checked) return; // Only check once
200008ac:	00000013          	nop
    }
}
200008b0:	00c12083          	lw	ra,12(sp)
200008b4:	00812403          	lw	s0,8(sp)
200008b8:	01010113          	addi	sp,sp,16
200008bc:	00008067          	ret

200008c0 <check_assignment_4_1>:

int assignment_4_1_checked = 0;
void check_assignment_4_1() {
200008c0:	ff010113          	addi	sp,sp,-16
200008c4:	00112623          	sw	ra,12(sp)
200008c8:	00812423          	sw	s0,8(sp)
200008cc:	01010413          	addi	s0,sp,16
    if(assignment_4_1_checked) return; // Only check once
200008d0:	200057b7          	lui	a5,0x20005
200008d4:	e4c7a783          	lw	a5,-436(a5) # 20004e4c <assignment_4_1_checked>
200008d8:	06079263          	bnez	a5,2000093c <check_assignment_4_1+0x7c>
    assignment_4_1_checked = 1;
200008dc:	200057b7          	lui	a5,0x20005
200008e0:	00100713          	li	a4,1
200008e4:	e4e7a623          	sw	a4,-436(a5) # 20004e4c <assignment_4_1_checked>
    printf("Checking assignment 4.1...");
200008e8:	200057b7          	lui	a5,0x20005
200008ec:	82c78513          	addi	a0,a5,-2004 # 2000482c <_malloc_usable_size_r+0x1bc>
200008f0:	015010ef          	jal	20002104 <iprintf>
    if (*GPIOE_CFGHR != 0x44444444) {
200008f4:	400127b7          	lui	a5,0x40012
200008f8:	80478793          	addi	a5,a5,-2044 # 40011804 <__stack_top+0x2000bd90>
200008fc:	0007a703          	lw	a4,0(a5)
20000900:	444447b7          	lui	a5,0x44444
20000904:	44478793          	addi	a5,a5,1092 # 44444444 <__stack_top+0x2443e9d0>
20000908:	02f70263          	beq	a4,a5,2000092c <check_assignment_4_1+0x6c>
        printf("\nAssignment 4.1 is not correct CFGHR=0x%08X.\n", *GPIOE_CFGHR);
2000090c:	400127b7          	lui	a5,0x40012
20000910:	80478793          	addi	a5,a5,-2044 # 40011804 <__stack_top+0x2000bd90>
20000914:	0007a783          	lw	a5,0(a5)
20000918:	00078593          	mv	a1,a5
2000091c:	200057b7          	lui	a5,0x20005
20000920:	84878513          	addi	a0,a5,-1976 # 20004848 <_malloc_usable_size_r+0x1d8>
20000924:	7e0010ef          	jal	20002104 <iprintf>
20000928:	0180006f          	j	20000940 <check_assignment_4_1+0x80>
    } else {
        printf("PASSED!\n");
2000092c:	200047b7          	lui	a5,0x20004
20000930:	6e478513          	addi	a0,a5,1764 # 200046e4 <_malloc_usable_size_r+0x74>
20000934:	145010ef          	jal	20002278 <puts>
20000938:	0080006f          	j	20000940 <check_assignment_4_1+0x80>
    if(assignment_4_1_checked) return; // Only check once
2000093c:	00000013          	nop
    }
}
20000940:	00c12083          	lw	ra,12(sp)
20000944:	00812403          	lw	s0,8(sp)
20000948:	01010113          	addi	sp,sp,16
2000094c:	00008067          	ret

20000950 <check_assignment_4_2>:

int assignment_4_2_checked = 0;
void check_assignment_4_2() {
20000950:	ff010113          	addi	sp,sp,-16
20000954:	00112623          	sw	ra,12(sp)
20000958:	00812423          	sw	s0,8(sp)
2000095c:	01010413          	addi	s0,sp,16
    if(assignment_4_2_checked) return; // Only check once
20000960:	200057b7          	lui	a5,0x20005
20000964:	e507a783          	lw	a5,-432(a5) # 20004e50 <assignment_4_2_checked>
20000968:	06079263          	bnez	a5,200009cc <check_assignment_4_2+0x7c>
    assignment_4_2_checked = 1;
2000096c:	200057b7          	lui	a5,0x20005
20000970:	00100713          	li	a4,1
20000974:	e4e7a823          	sw	a4,-432(a5) # 20004e50 <assignment_4_2_checked>
    printf("Checking assignment 4.2...");
20000978:	200057b7          	lui	a5,0x20005
2000097c:	87878513          	addi	a0,a5,-1928 # 20004878 <_malloc_usable_size_r+0x208>
20000980:	784010ef          	jal	20002104 <iprintf>
    if((*GPIOE_OUTDR & EN) != 0 || (*GPIOE_OUTDR & RW) == 0) {
20000984:	400127b7          	lui	a5,0x40012
20000988:	80c78793          	addi	a5,a5,-2036 # 4001180c <__stack_top+0x2000bd98>
2000098c:	0007a783          	lw	a5,0(a5)
20000990:	0047f793          	andi	a5,a5,4
20000994:	00079c63          	bnez	a5,200009ac <check_assignment_4_2+0x5c>
20000998:	400127b7          	lui	a5,0x40012
2000099c:	80c78793          	addi	a5,a5,-2036 # 4001180c <__stack_top+0x2000bd98>
200009a0:	0007a783          	lw	a5,0(a5)
200009a4:	0027f793          	andi	a5,a5,2
200009a8:	00079a63          	bnez	a5,200009bc <check_assignment_4_2+0x6c>
        printf("\nAssignment 4.2 is not correct, RS or RW not set correctly.\n");
200009ac:	200057b7          	lui	a5,0x20005
200009b0:	89478513          	addi	a0,a5,-1900 # 20004894 <_malloc_usable_size_r+0x224>
200009b4:	0c5010ef          	jal	20002278 <puts>
200009b8:	0180006f          	j	200009d0 <check_assignment_4_2+0x80>
    } 
    else {
        printf("PASSED!\n");
200009bc:	200047b7          	lui	a5,0x20004
200009c0:	6e478513          	addi	a0,a5,1764 # 200046e4 <_malloc_usable_size_r+0x74>
200009c4:	0b5010ef          	jal	20002278 <puts>
200009c8:	0080006f          	j	200009d0 <check_assignment_4_2+0x80>
    if(assignment_4_2_checked) return; // Only check once
200009cc:	00000013          	nop
    }
}
200009d0:	00c12083          	lw	ra,12(sp)
200009d4:	00812403          	lw	s0,8(sp)
200009d8:	01010113          	addi	sp,sp,16
200009dc:	00008067          	ret

200009e0 <check_assignment_4_3>:

int assignment_4_3_checked = 0;
void check_assignment_4_3() {
200009e0:	ff010113          	addi	sp,sp,-16
200009e4:	00112623          	sw	ra,12(sp)
200009e8:	00812423          	sw	s0,8(sp)
200009ec:	01010413          	addi	s0,sp,16
    if(assignment_4_3_checked) return; // Only check once
200009f0:	200057b7          	lui	a5,0x20005
200009f4:	e547a783          	lw	a5,-428(a5) # 20004e54 <assignment_4_3_checked>
200009f8:	04079863          	bnez	a5,20000a48 <check_assignment_4_3+0x68>
    assignment_4_3_checked = 1;
200009fc:	200057b7          	lui	a5,0x20005
20000a00:	00100713          	li	a4,1
20000a04:	e4e7aa23          	sw	a4,-428(a5) # 20004e54 <assignment_4_3_checked>
    printf("Checking assignment 4.3...");
20000a08:	200057b7          	lui	a5,0x20005
20000a0c:	8d078513          	addi	a0,a5,-1840 # 200048d0 <_malloc_usable_size_r+0x260>
20000a10:	6f4010ef          	jal	20002104 <iprintf>
    if((*GPIOE_OUTDR & EN) == 0) {
20000a14:	400127b7          	lui	a5,0x40012
20000a18:	80c78793          	addi	a5,a5,-2036 # 4001180c <__stack_top+0x2000bd98>
20000a1c:	0007a783          	lw	a5,0(a5)
20000a20:	0047f793          	andi	a5,a5,4
20000a24:	00079a63          	bnez	a5,20000a38 <check_assignment_4_3+0x58>
        printf("\nAssignment 4.3 is not correct, Enable not set.\n");
20000a28:	200057b7          	lui	a5,0x20005
20000a2c:	8ec78513          	addi	a0,a5,-1812 # 200048ec <_malloc_usable_size_r+0x27c>
20000a30:	049010ef          	jal	20002278 <puts>
20000a34:	0180006f          	j	20000a4c <check_assignment_4_3+0x6c>
    } 
    else {
        printf("PASSED!\n");
20000a38:	200047b7          	lui	a5,0x20004
20000a3c:	6e478513          	addi	a0,a5,1764 # 200046e4 <_malloc_usable_size_r+0x74>
20000a40:	039010ef          	jal	20002278 <puts>
20000a44:	0080006f          	j	20000a4c <check_assignment_4_3+0x6c>
    if(assignment_4_3_checked) return; // Only check once
20000a48:	00000013          	nop
    }
}
20000a4c:	00c12083          	lw	ra,12(sp)
20000a50:	00812403          	lw	s0,8(sp)
20000a54:	01010113          	addi	sp,sp,16
20000a58:	00008067          	ret

20000a5c <check_assignment_4_4>:

int assignment_4_4_checked = 0;
void check_assignment_4_4() {
20000a5c:	ff010113          	addi	sp,sp,-16
20000a60:	00112623          	sw	ra,12(sp)
20000a64:	00812423          	sw	s0,8(sp)
20000a68:	01010413          	addi	s0,sp,16
    if(assignment_4_4_checked) return; // Only check once
20000a6c:	200057b7          	lui	a5,0x20005
20000a70:	e587a783          	lw	a5,-424(a5) # 20004e58 <assignment_4_4_checked>
20000a74:	04079863          	bnez	a5,20000ac4 <check_assignment_4_4+0x68>
    assignment_4_4_checked = 1;
20000a78:	200057b7          	lui	a5,0x20005
20000a7c:	00100713          	li	a4,1
20000a80:	e4e7ac23          	sw	a4,-424(a5) # 20004e58 <assignment_4_4_checked>
    printf("Checking assignment 4.4...");
20000a84:	200057b7          	lui	a5,0x20005
20000a88:	91c78513          	addi	a0,a5,-1764 # 2000491c <_malloc_usable_size_r+0x2ac>
20000a8c:	678010ef          	jal	20002104 <iprintf>
    if((*GPIOE_OUTDR & EN) != 0) {
20000a90:	400127b7          	lui	a5,0x40012
20000a94:	80c78793          	addi	a5,a5,-2036 # 4001180c <__stack_top+0x2000bd98>
20000a98:	0007a783          	lw	a5,0(a5)
20000a9c:	0047f793          	andi	a5,a5,4
20000aa0:	00078a63          	beqz	a5,20000ab4 <check_assignment_4_4+0x58>
        printf("\nAssignment 4.4 is not correct, Enable is still set.\n");
20000aa4:	200057b7          	lui	a5,0x20005
20000aa8:	93878513          	addi	a0,a5,-1736 # 20004938 <_malloc_usable_size_r+0x2c8>
20000aac:	7cc010ef          	jal	20002278 <puts>
20000ab0:	0180006f          	j	20000ac8 <check_assignment_4_4+0x6c>
    } 
    else {
        printf("PASSED!\n");
20000ab4:	200047b7          	lui	a5,0x20004
20000ab8:	6e478513          	addi	a0,a5,1764 # 200046e4 <_malloc_usable_size_r+0x74>
20000abc:	7bc010ef          	jal	20002278 <puts>
20000ac0:	0080006f          	j	20000ac8 <check_assignment_4_4+0x6c>
    if(assignment_4_4_checked) return; // Only check once
20000ac4:	00000013          	nop
    }
}
20000ac8:	00c12083          	lw	ra,12(sp)
20000acc:	00812403          	lw	s0,8(sp)
20000ad0:	01010113          	addi	sp,sp,16
20000ad4:	00008067          	ret

20000ad8 <check_assignment_4_5>:

int assignment_4_5_checked = 0;
void check_assignment_4_5() {
20000ad8:	ff010113          	addi	sp,sp,-16
20000adc:	00112623          	sw	ra,12(sp)
20000ae0:	00812423          	sw	s0,8(sp)
20000ae4:	01010413          	addi	s0,sp,16
    if(assignment_4_5_checked) return; // Only check once
20000ae8:	200057b7          	lui	a5,0x20005
20000aec:	e5c7a783          	lw	a5,-420(a5) # 20004e5c <assignment_4_5_checked>
20000af0:	06079263          	bnez	a5,20000b54 <check_assignment_4_5+0x7c>
    assignment_4_5_checked = 1;
20000af4:	200057b7          	lui	a5,0x20005
20000af8:	00100713          	li	a4,1
20000afc:	e4e7ae23          	sw	a4,-420(a5) # 20004e5c <assignment_4_5_checked>
    printf("Checking assignment 4.5...");
20000b00:	200057b7          	lui	a5,0x20005
20000b04:	97078513          	addi	a0,a5,-1680 # 20004970 <_malloc_usable_size_r+0x300>
20000b08:	5fc010ef          	jal	20002104 <iprintf>
    if (*GPIOE_CFGHR != 0x22222222) {
20000b0c:	400127b7          	lui	a5,0x40012
20000b10:	80478793          	addi	a5,a5,-2044 # 40011804 <__stack_top+0x2000bd90>
20000b14:	0007a703          	lw	a4,0(a5)
20000b18:	222227b7          	lui	a5,0x22222
20000b1c:	22278793          	addi	a5,a5,546 # 22222222 <__stack_top+0x221c7ae>
20000b20:	02f70263          	beq	a4,a5,20000b44 <check_assignment_4_5+0x6c>
        printf("\nAssignment 4.5 is not correct CFGHR=0x%08X.\n", *GPIOE_CFGHR);
20000b24:	400127b7          	lui	a5,0x40012
20000b28:	80478793          	addi	a5,a5,-2044 # 40011804 <__stack_top+0x2000bd90>
20000b2c:	0007a783          	lw	a5,0(a5)
20000b30:	00078593          	mv	a1,a5
20000b34:	200057b7          	lui	a5,0x20005
20000b38:	98c78513          	addi	a0,a5,-1652 # 2000498c <_malloc_usable_size_r+0x31c>
20000b3c:	5c8010ef          	jal	20002104 <iprintf>
20000b40:	0180006f          	j	20000b58 <check_assignment_4_5+0x80>
    } else {
        printf("PASSED!\n");
20000b44:	200047b7          	lui	a5,0x20004
20000b48:	6e478513          	addi	a0,a5,1764 # 200046e4 <_malloc_usable_size_r+0x74>
20000b4c:	72c010ef          	jal	20002278 <puts>
20000b50:	0080006f          	j	20000b58 <check_assignment_4_5+0x80>
    if(assignment_4_5_checked) return; // Only check once
20000b54:	00000013          	nop
    }
}
20000b58:	00c12083          	lw	ra,12(sp)
20000b5c:	00812403          	lw	s0,8(sp)
20000b60:	01010113          	addi	sp,sp,16
20000b64:	00008067          	ret

20000b68 <check_assignment_5>:

int assignement_5_checked = 0;
void check_assignment_5() {
20000b68:	ff010113          	addi	sp,sp,-16
20000b6c:	00112623          	sw	ra,12(sp)
20000b70:	00812423          	sw	s0,8(sp)
20000b74:	01010413          	addi	s0,sp,16
    if(assignement_5_checked) return; // Only check once
20000b78:	200057b7          	lui	a5,0x20005
20000b7c:	e607a783          	lw	a5,-416(a5) # 20004e60 <assignement_5_checked>
20000b80:	06079263          	bnez	a5,20000be4 <check_assignment_5+0x7c>
    assignement_5_checked = 1;
20000b84:	200057b7          	lui	a5,0x20005
20000b88:	00100713          	li	a4,1
20000b8c:	e6e7a023          	sw	a4,-416(a5) # 20004e60 <assignement_5_checked>
    printf("Checking assignment 5...");
20000b90:	200057b7          	lui	a5,0x20005
20000b94:	9bc78513          	addi	a0,a5,-1604 # 200049bc <_malloc_usable_size_r+0x34c>
20000b98:	56c010ef          	jal	20002104 <iprintf>
    if((*GPIOE_OUTDR & RS) == 0 || (*GPIOE_OUTDR & RW) != 0) {
20000b9c:	400127b7          	lui	a5,0x40012
20000ba0:	80c78793          	addi	a5,a5,-2036 # 4001180c <__stack_top+0x2000bd98>
20000ba4:	0007a783          	lw	a5,0(a5)
20000ba8:	0017f793          	andi	a5,a5,1
20000bac:	00078c63          	beqz	a5,20000bc4 <check_assignment_5+0x5c>
20000bb0:	400127b7          	lui	a5,0x40012
20000bb4:	80c78793          	addi	a5,a5,-2036 # 4001180c <__stack_top+0x2000bd98>
20000bb8:	0007a783          	lw	a5,0(a5)
20000bbc:	0027f793          	andi	a5,a5,2
20000bc0:	00078a63          	beqz	a5,20000bd4 <check_assignment_5+0x6c>
        printf("\nAssignment 5 is not correct, RS or RW not set correctly.\n");
20000bc4:	200057b7          	lui	a5,0x20005
20000bc8:	9d878513          	addi	a0,a5,-1576 # 200049d8 <_malloc_usable_size_r+0x368>
20000bcc:	6ac010ef          	jal	20002278 <puts>
20000bd0:	0180006f          	j	20000be8 <check_assignment_5+0x80>
    } 
    else {
        printf("PASSED!\n");
20000bd4:	200047b7          	lui	a5,0x20004
20000bd8:	6e478513          	addi	a0,a5,1764 # 200046e4 <_malloc_usable_size_r+0x74>
20000bdc:	69c010ef          	jal	20002278 <puts>
20000be0:	0080006f          	j	20000be8 <check_assignment_5+0x80>
    if(assignement_5_checked) return; // Only check once
20000be4:	00000013          	nop
    }
}
20000be8:	00c12083          	lw	ra,12(sp)
20000bec:	00812403          	lw	s0,8(sp)
20000bf0:	01010113          	addi	sp,sp,16
20000bf4:	00008067          	ret

20000bf8 <await_status>:

void await_status()
{
20000bf8:	ff010113          	addi	sp,sp,-16
20000bfc:	00112623          	sw	ra,12(sp)
20000c00:	00812423          	sw	s0,8(sp)
20000c04:	01010413          	addi	s0,sp,16
    while(ascii_read_status() != 0) {
20000c08:	00000013          	nop
20000c0c:	fa0ff0ef          	jal	200003ac <ascii_read_status>
20000c10:	00050793          	mv	a5,a0
20000c14:	fe079ce3          	bnez	a5,20000c0c <await_status+0x14>
    }
}
20000c18:	00000013          	nop
20000c1c:	00000013          	nop
20000c20:	00c12083          	lw	ra,12(sp)
20000c24:	00812403          	lw	s0,8(sp)
20000c28:	01010113          	addi	sp,sp,16
20000c2c:	00008067          	ret

20000c30 <main>:

int main(void)
{
20000c30:	fe010113          	addi	sp,sp,-32
20000c34:	00112e23          	sw	ra,28(sp)
20000c38:	00812c23          	sw	s0,24(sp)
20000c3c:	02010413          	addi	s0,sp,32
    init_gpio_port_e(); 
20000c40:	cf4ff0ef          	jal	20000134 <init_gpio_port_e>
    check_assignment_1();
20000c44:	9f9ff0ef          	jal	2000063c <check_assignment_1>
    ascii_write_controller(0xAB);
20000c48:	0ab00513          	li	a0,171
20000c4c:	e08ff0ef          	jal	20000254 <ascii_write_controller>
    ascii_write_command(0x38);
20000c50:	03800513          	li	a0,56
20000c54:	ef4ff0ef          	jal	20000348 <ascii_write_command>
    check_assignment_3(); 
20000c58:	bedff0ef          	jal	20000844 <check_assignment_3>
    ascii_read_status(); 
20000c5c:	f50ff0ef          	jal	200003ac <ascii_read_status>

    printf("Polling status until display is ready...");
20000c60:	200057b7          	lui	a5,0x20005
20000c64:	a1478513          	addi	a0,a5,-1516 # 20004a14 <_malloc_usable_size_r+0x3a4>
20000c68:	49c010ef          	jal	20002104 <iprintf>
    while(ascii_read_status() != 0) {
20000c6c:	00c0006f          	j	20000c78 <main+0x48>
        // Wait until display is ready
        printf(".");
20000c70:	02e00513          	li	a0,46
20000c74:	4e8010ef          	jal	2000215c <putchar>
    while(ascii_read_status() != 0) {
20000c78:	f34ff0ef          	jal	200003ac <ascii_read_status>
20000c7c:	00050793          	mv	a5,a0
20000c80:	fe0798e3          	bnez	a5,20000c70 <main+0x40>
    }
    printf("\nDisplay is ready!\n");
20000c84:	200057b7          	lui	a5,0x20005
20000c88:	a4078513          	addi	a0,a5,-1472 # 20004a40 <_malloc_usable_size_r+0x3d0>
20000c8c:	5ec010ef          	jal	20002278 <puts>
    printf("If everything actually works, you should see the password on your display.\n");
20000c90:	200057b7          	lui	a5,0x20005
20000c94:	a5478513          	addi	a0,a5,-1452 # 20004a54 <_malloc_usable_size_r+0x3e4>
20000c98:	5e0010ef          	jal	20002278 <puts>

    ascii_write_command(0b1000); // Display off
20000c9c:	00800513          	li	a0,8
20000ca0:	ea8ff0ef          	jal	20000348 <ascii_write_command>
    while(ascii_read_status() != 0) {}
20000ca4:	00000013          	nop
20000ca8:	f04ff0ef          	jal	200003ac <ascii_read_status>
20000cac:	00050793          	mv	a5,a0
20000cb0:	fe079ce3          	bnez	a5,20000ca8 <main+0x78>
    ascii_write_command(0b00111000); // Function set: 8-bit, 2 lines, 5x8 dots
20000cb4:	03800513          	li	a0,56
20000cb8:	e90ff0ef          	jal	20000348 <ascii_write_command>
    while(ascii_read_status() != 0) {}
20000cbc:	00000013          	nop
20000cc0:	eecff0ef          	jal	200003ac <ascii_read_status>
20000cc4:	00050793          	mv	a5,a0
20000cc8:	fe079ce3          	bnez	a5,20000cc0 <main+0x90>
    ascii_write_command(0b00001110); // Display on, cursor off, blink
20000ccc:	00e00513          	li	a0,14
20000cd0:	e78ff0ef          	jal	20000348 <ascii_write_command>
    while(ascii_read_status() != 0) {}
20000cd4:	00000013          	nop
20000cd8:	ed4ff0ef          	jal	200003ac <ascii_read_status>
20000cdc:	00050793          	mv	a5,a0
20000ce0:	fe079ce3          	bnez	a5,20000cd8 <main+0xa8>
    ascii_write_command(0b00000110); // Cursor right, no display shift
20000ce4:	00600513          	li	a0,6
20000ce8:	e60ff0ef          	jal	20000348 <ascii_write_command>
    while(ascii_read_status() != 0) {}
20000cec:	00000013          	nop
20000cf0:	ebcff0ef          	jal	200003ac <ascii_read_status>
20000cf4:	00050793          	mv	a5,a0
20000cf8:	fe079ce3          	bnez	a5,20000cf0 <main+0xc0>
    ascii_write_command(0b00000001); // Clear display
20000cfc:	00100513          	li	a0,1
20000d00:	e48ff0ef          	jal	20000348 <ascii_write_command>
    while(ascii_read_status() != 0) {}
20000d04:	00000013          	nop
20000d08:	ea4ff0ef          	jal	200003ac <ascii_read_status>
20000d0c:	00050793          	mv	a5,a0
20000d10:	fe079ce3          	bnez	a5,20000d08 <main+0xd8>

    char *m = "LNMJDX";
20000d14:	200057b7          	lui	a5,0x20005
20000d18:	aa078793          	addi	a5,a5,-1376 # 20004aa0 <_malloc_usable_size_r+0x430>
20000d1c:	fef42623          	sw	a5,-20(s0)
    while(*m != '\0') {
20000d20:	0340006f          	j	20000d54 <main+0x124>
        ascii_write_data((*m++) + 1);
20000d24:	fec42783          	lw	a5,-20(s0)
20000d28:	00178713          	addi	a4,a5,1
20000d2c:	fee42623          	sw	a4,-20(s0)
20000d30:	0007c783          	lbu	a5,0(a5)
20000d34:	00178793          	addi	a5,a5,1
20000d38:	0ff7f793          	zext.b	a5,a5
20000d3c:	00078513          	mv	a0,a5
20000d40:	87dff0ef          	jal	200005bc <ascii_write_data>
        while(ascii_read_status() != 0) {}
20000d44:	00000013          	nop
20000d48:	e64ff0ef          	jal	200003ac <ascii_read_status>
20000d4c:	00050793          	mv	a5,a0
20000d50:	fe079ce3          	bnez	a5,20000d48 <main+0x118>
    while(*m != '\0') {
20000d54:	fec42783          	lw	a5,-20(s0)
20000d58:	0007c783          	lbu	a5,0(a5)
20000d5c:	fc0794e3          	bnez	a5,20000d24 <main+0xf4>
    }
    return 0;
20000d60:	00000793          	li	a5,0
}
20000d64:	00078513          	mv	a0,a5
20000d68:	01c12083          	lw	ra,28(sp)
20000d6c:	01812403          	lw	s0,24(sp)
20000d70:	02010113          	addi	sp,sp,32
20000d74:	00008067          	ret

20000d78 <_pll_init_144>:
20000d78:	fe010113          	addi	sp,sp,-32
20000d7c:	00112e23          	sw	ra,28(sp)
20000d80:	00812c23          	sw	s0,24(sp)
20000d84:	02010413          	addi	s0,sp,32
20000d88:	fe042623          	sw	zero,-20(s0)
20000d8c:	fe042423          	sw	zero,-24(s0)
20000d90:	400217b7          	lui	a5,0x40021
20000d94:	0007a703          	lw	a4,0(a5) # 40021000 <__stack_top+0x2001b58c>
20000d98:	400217b7          	lui	a5,0x40021
20000d9c:	00176713          	ori	a4,a4,1
20000da0:	00e7a023          	sw	a4,0(a5) # 40021000 <__stack_top+0x2001b58c>
20000da4:	400217b7          	lui	a5,0x40021
20000da8:	00478793          	addi	a5,a5,4 # 40021004 <__stack_top+0x2001b590>
20000dac:	0007a683          	lw	a3,0(a5)
20000db0:	400217b7          	lui	a5,0x40021
20000db4:	00478793          	addi	a5,a5,4 # 40021004 <__stack_top+0x2001b590>
20000db8:	f8ff0737          	lui	a4,0xf8ff0
20000dbc:	00e6f733          	and	a4,a3,a4
20000dc0:	00e7a023          	sw	a4,0(a5)
20000dc4:	400217b7          	lui	a5,0x40021
20000dc8:	0007a683          	lw	a3,0(a5) # 40021000 <__stack_top+0x2001b58c>
20000dcc:	400217b7          	lui	a5,0x40021
20000dd0:	fef70737          	lui	a4,0xfef70
20000dd4:	fff70713          	addi	a4,a4,-1 # fef6ffff <__stack_top+0xdef6a58b>
20000dd8:	00e6f733          	and	a4,a3,a4
20000ddc:	00e7a023          	sw	a4,0(a5) # 40021000 <__stack_top+0x2001b58c>
20000de0:	400217b7          	lui	a5,0x40021
20000de4:	0007a683          	lw	a3,0(a5) # 40021000 <__stack_top+0x2001b58c>
20000de8:	400217b7          	lui	a5,0x40021
20000dec:	fffc0737          	lui	a4,0xfffc0
20000df0:	fff70713          	addi	a4,a4,-1 # fffbffff <__stack_top+0xdffba58b>
20000df4:	00e6f733          	and	a4,a3,a4
20000df8:	00e7a023          	sw	a4,0(a5) # 40021000 <__stack_top+0x2001b58c>
20000dfc:	400217b7          	lui	a5,0x40021
20000e00:	00478793          	addi	a5,a5,4 # 40021004 <__stack_top+0x2001b590>
20000e04:	0007a683          	lw	a3,0(a5)
20000e08:	400217b7          	lui	a5,0x40021
20000e0c:	00478793          	addi	a5,a5,4 # 40021004 <__stack_top+0x2001b590>
20000e10:	ff810737          	lui	a4,0xff810
20000e14:	fff70713          	addi	a4,a4,-1 # ff80ffff <__stack_top+0xdf80a58b>
20000e18:	00e6f733          	and	a4,a3,a4
20000e1c:	00e7a023          	sw	a4,0(a5)
20000e20:	400217b7          	lui	a5,0x40021
20000e24:	0007a683          	lw	a3,0(a5) # 40021000 <__stack_top+0x2001b58c>
20000e28:	400217b7          	lui	a5,0x40021
20000e2c:	ec000737          	lui	a4,0xec000
20000e30:	fff70713          	addi	a4,a4,-1 # ebffffff <__stack_top+0xcbffa58b>
20000e34:	00e6f733          	and	a4,a3,a4
20000e38:	00e7a023          	sw	a4,0(a5) # 40021000 <__stack_top+0x2001b58c>
20000e3c:	400217b7          	lui	a5,0x40021
20000e40:	00878793          	addi	a5,a5,8 # 40021008 <__stack_top+0x2001b594>
20000e44:	00ff0737          	lui	a4,0xff0
20000e48:	00e7a023          	sw	a4,0(a5)
20000e4c:	400217b7          	lui	a5,0x40021
20000e50:	02c78793          	addi	a5,a5,44 # 4002102c <__stack_top+0x2001b5b8>
20000e54:	0007a023          	sw	zero,0(a5)
20000e58:	400217b7          	lui	a5,0x40021
20000e5c:	0007a683          	lw	a3,0(a5) # 40021000 <__stack_top+0x2001b58c>
20000e60:	400217b7          	lui	a5,0x40021
20000e64:	00010737          	lui	a4,0x10
20000e68:	00e6e733          	or	a4,a3,a4
20000e6c:	00e7a023          	sw	a4,0(a5) # 40021000 <__stack_top+0x2001b58c>
20000e70:	400217b7          	lui	a5,0x40021
20000e74:	0007a703          	lw	a4,0(a5) # 40021000 <__stack_top+0x2001b58c>
20000e78:	000207b7          	lui	a5,0x20
20000e7c:	00f777b3          	and	a5,a4,a5
20000e80:	fef42423          	sw	a5,-24(s0)
20000e84:	fec42783          	lw	a5,-20(s0)
20000e88:	00178793          	addi	a5,a5,1 # 20001 <_start-0x1ffdffff>
20000e8c:	fef42623          	sw	a5,-20(s0)
20000e90:	fe842783          	lw	a5,-24(s0)
20000e94:	00079863          	bnez	a5,20000ea4 <_pll_init_144+0x12c>
20000e98:	fec42703          	lw	a4,-20(s0)
20000e9c:	1f400793          	li	a5,500
20000ea0:	fcf718e3          	bne	a4,a5,20000e70 <_pll_init_144+0xf8>
20000ea4:	400217b7          	lui	a5,0x40021
20000ea8:	0007a703          	lw	a4,0(a5) # 40021000 <__stack_top+0x2001b58c>
20000eac:	000207b7          	lui	a5,0x20
20000eb0:	00f777b3          	and	a5,a4,a5
20000eb4:	00079663          	bnez	a5,20000ec0 <_pll_init_144+0x148>
20000eb8:	00100793          	li	a5,1
20000ebc:	11c0006f          	j	20000fd8 <_pll_init_144+0x260>
20000ec0:	400217b7          	lui	a5,0x40021
20000ec4:	00478713          	addi	a4,a5,4 # 40021004 <__stack_top+0x2001b590>
20000ec8:	400217b7          	lui	a5,0x40021
20000ecc:	00478793          	addi	a5,a5,4 # 40021004 <__stack_top+0x2001b590>
20000ed0:	00072703          	lw	a4,0(a4) # 10000 <_start-0x1fff0000>
20000ed4:	00e7a023          	sw	a4,0(a5)
20000ed8:	400217b7          	lui	a5,0x40021
20000edc:	00478713          	addi	a4,a5,4 # 40021004 <__stack_top+0x2001b590>
20000ee0:	400217b7          	lui	a5,0x40021
20000ee4:	00478793          	addi	a5,a5,4 # 40021004 <__stack_top+0x2001b590>
20000ee8:	00072703          	lw	a4,0(a4)
20000eec:	00e7a023          	sw	a4,0(a5)
20000ef0:	400217b7          	lui	a5,0x40021
20000ef4:	02c78793          	addi	a5,a5,44 # 4002102c <__stack_top+0x2001b5b8>
20000ef8:	0007a703          	lw	a4,0(a5)
20000efc:	400217b7          	lui	a5,0x40021
20000f00:	02c78793          	addi	a5,a5,44 # 4002102c <__stack_top+0x2001b5b8>
20000f04:	40076713          	ori	a4,a4,1024
20000f08:	00e7a023          	sw	a4,0(a5)
20000f0c:	400217b7          	lui	a5,0x40021
20000f10:	00478793          	addi	a5,a5,4 # 40021004 <__stack_top+0x2001b590>
20000f14:	0007a683          	lw	a3,0(a5)
20000f18:	400217b7          	lui	a5,0x40021
20000f1c:	00478793          	addi	a5,a5,4 # 40021004 <__stack_top+0x2001b590>
20000f20:	ffc10737          	lui	a4,0xffc10
20000f24:	fff70713          	addi	a4,a4,-1 # ffc0ffff <__stack_top+0xdfc0a58b>
20000f28:	00e6f733          	and	a4,a3,a4
20000f2c:	00e7a023          	sw	a4,0(a5)
20000f30:	400217b7          	lui	a5,0x40021
20000f34:	00478793          	addi	a5,a5,4 # 40021004 <__stack_top+0x2001b590>
20000f38:	0007a683          	lw	a3,0(a5)
20000f3c:	400217b7          	lui	a5,0x40021
20000f40:	00478793          	addi	a5,a5,4 # 40021004 <__stack_top+0x2001b590>
20000f44:	00010737          	lui	a4,0x10
20000f48:	00e6e733          	or	a4,a3,a4
20000f4c:	00e7a023          	sw	a4,0(a5)
20000f50:	400217b7          	lui	a5,0x40021
20000f54:	0007a683          	lw	a3,0(a5) # 40021000 <__stack_top+0x2001b58c>
20000f58:	400217b7          	lui	a5,0x40021
20000f5c:	01000737          	lui	a4,0x1000
20000f60:	00e6e733          	or	a4,a3,a4
20000f64:	00e7a023          	sw	a4,0(a5) # 40021000 <__stack_top+0x2001b58c>
20000f68:	00000013          	nop
20000f6c:	400217b7          	lui	a5,0x40021
20000f70:	0007a703          	lw	a4,0(a5) # 40021000 <__stack_top+0x2001b58c>
20000f74:	020007b7          	lui	a5,0x2000
20000f78:	00f777b3          	and	a5,a4,a5
20000f7c:	fe0788e3          	beqz	a5,20000f6c <_pll_init_144+0x1f4>
20000f80:	400217b7          	lui	a5,0x40021
20000f84:	00478793          	addi	a5,a5,4 # 40021004 <__stack_top+0x2001b590>
20000f88:	0007a703          	lw	a4,0(a5)
20000f8c:	400217b7          	lui	a5,0x40021
20000f90:	00478793          	addi	a5,a5,4 # 40021004 <__stack_top+0x2001b590>
20000f94:	ffc77713          	andi	a4,a4,-4
20000f98:	00e7a023          	sw	a4,0(a5)
20000f9c:	400217b7          	lui	a5,0x40021
20000fa0:	00478793          	addi	a5,a5,4 # 40021004 <__stack_top+0x2001b590>
20000fa4:	0007a703          	lw	a4,0(a5)
20000fa8:	400217b7          	lui	a5,0x40021
20000fac:	00478793          	addi	a5,a5,4 # 40021004 <__stack_top+0x2001b590>
20000fb0:	00276713          	ori	a4,a4,2
20000fb4:	00e7a023          	sw	a4,0(a5)
20000fb8:	00000013          	nop
20000fbc:	400217b7          	lui	a5,0x40021
20000fc0:	00478793          	addi	a5,a5,4 # 40021004 <__stack_top+0x2001b590>
20000fc4:	0007a783          	lw	a5,0(a5)
20000fc8:	00c7f713          	andi	a4,a5,12
20000fcc:	00800793          	li	a5,8
20000fd0:	fef716e3          	bne	a4,a5,20000fbc <_pll_init_144+0x244>
20000fd4:	00000793          	li	a5,0
20000fd8:	00078513          	mv	a0,a5
20000fdc:	01c12083          	lw	ra,28(sp)
20000fe0:	01812403          	lw	s0,24(sp)
20000fe4:	02010113          	addi	sp,sp,32
20000fe8:	00008067          	ret

20000fec <crt_timer_interrupt>:
20000fec:	fd010113          	addi	sp,sp,-48
20000ff0:	02112623          	sw	ra,44(sp)
20000ff4:	02512423          	sw	t0,40(sp)
20000ff8:	02812223          	sw	s0,36(sp)
20000ffc:	02a12023          	sw	a0,32(sp)
20001000:	00b12e23          	sw	a1,28(sp)
20001004:	00c12c23          	sw	a2,24(sp)
20001008:	00d12a23          	sw	a3,20(sp)
2000100c:	00e12823          	sw	a4,16(sp)
20001010:	00f12623          	sw	a5,12(sp)
20001014:	01012423          	sw	a6,8(sp)
20001018:	03010413          	addi	s0,sp,48
2000101c:	400017b7          	lui	a5,0x40001
20001020:	0107d783          	lhu	a5,16(a5) # 40001010 <__stack_top+0x1fffb59c>
20001024:	01079713          	slli	a4,a5,0x10
20001028:	01075713          	srli	a4,a4,0x10
2000102c:	400017b7          	lui	a5,0x40001
20001030:	ffe77713          	andi	a4,a4,-2
20001034:	01071713          	slli	a4,a4,0x10
20001038:	01075713          	srli	a4,a4,0x10
2000103c:	00e79823          	sh	a4,16(a5) # 40001010 <__stack_top+0x1fffb59c>
20001040:	200057b7          	lui	a5,0x20005
20001044:	cf87a703          	lw	a4,-776(a5) # 20004cf8 <current_time>
20001048:	cfc7a783          	lw	a5,-772(a5)
2000104c:	00100513          	li	a0,1
20001050:	00000593          	li	a1,0
20001054:	00a70633          	add	a2,a4,a0
20001058:	00060813          	mv	a6,a2
2000105c:	00e83833          	sltu	a6,a6,a4
20001060:	00b786b3          	add	a3,a5,a1
20001064:	00d807b3          	add	a5,a6,a3
20001068:	00078693          	mv	a3,a5
2000106c:	00060713          	mv	a4,a2
20001070:	00068793          	mv	a5,a3
20001074:	200056b7          	lui	a3,0x20005
20001078:	cee6ac23          	sw	a4,-776(a3) # 20004cf8 <current_time>
2000107c:	cef6ae23          	sw	a5,-772(a3)
20001080:	00000013          	nop
20001084:	02c12083          	lw	ra,44(sp)
20001088:	02812283          	lw	t0,40(sp)
2000108c:	02412403          	lw	s0,36(sp)
20001090:	02012503          	lw	a0,32(sp)
20001094:	01c12583          	lw	a1,28(sp)
20001098:	01812603          	lw	a2,24(sp)
2000109c:	01412683          	lw	a3,20(sp)
200010a0:	01012703          	lw	a4,16(sp)
200010a4:	00c12783          	lw	a5,12(sp)
200010a8:	00812803          	lw	a6,8(sp)
200010ac:	03010113          	addi	sp,sp,48
200010b0:	30200073          	mret

200010b4 <_times>:
200010b4:	fe010113          	addi	sp,sp,-32
200010b8:	00112e23          	sw	ra,28(sp)
200010bc:	00812c23          	sw	s0,24(sp)
200010c0:	02010413          	addi	s0,sp,32
200010c4:	fea42623          	sw	a0,-20(s0)
200010c8:	200057b7          	lui	a5,0x20005
200010cc:	cf87a703          	lw	a4,-776(a5) # 20004cf8 <current_time>
200010d0:	cfc7a783          	lw	a5,-772(a5)
200010d4:	fec42783          	lw	a5,-20(s0)
200010d8:	00e7a223          	sw	a4,4(a5)
200010dc:	fec42783          	lw	a5,-20(s0)
200010e0:	0047a703          	lw	a4,4(a5)
200010e4:	fec42783          	lw	a5,-20(s0)
200010e8:	00e7a023          	sw	a4,0(a5)
200010ec:	200057b7          	lui	a5,0x20005
200010f0:	cf87a703          	lw	a4,-776(a5) # 20004cf8 <current_time>
200010f4:	cfc7a783          	lw	a5,-772(a5)
200010f8:	00070793          	mv	a5,a4
200010fc:	00078513          	mv	a0,a5
20001100:	01c12083          	lw	ra,28(sp)
20001104:	01812403          	lw	s0,24(sp)
20001108:	02010113          	addi	sp,sp,32
2000110c:	00008067          	ret

20001110 <_gettimeofday>:
20001110:	fd010113          	addi	sp,sp,-48
20001114:	02112623          	sw	ra,44(sp)
20001118:	02812423          	sw	s0,40(sp)
2000111c:	03010413          	addi	s0,sp,48
20001120:	fca42e23          	sw	a0,-36(s0)
20001124:	fcb42c23          	sw	a1,-40(s0)
20001128:	200057b7          	lui	a5,0x20005
2000112c:	cf87a703          	lw	a4,-776(a5) # 20004cf8 <current_time>
20001130:	cfc7a783          	lw	a5,-772(a5)
20001134:	fee42423          	sw	a4,-24(s0)
20001138:	fef42623          	sw	a5,-20(s0)
2000113c:	fe842703          	lw	a4,-24(s0)
20001140:	fec42783          	lw	a5,-20(s0)
20001144:	06400613          	li	a2,100
20001148:	00000693          	li	a3,0
2000114c:	00070513          	mv	a0,a4
20001150:	00078593          	mv	a1,a5
20001154:	768000ef          	jal	200018bc <__udivdi3>
20001158:	00050713          	mv	a4,a0
2000115c:	00058793          	mv	a5,a1
20001160:	fdc42683          	lw	a3,-36(s0)
20001164:	00e6a023          	sw	a4,0(a3)
20001168:	00f6a223          	sw	a5,4(a3)
2000116c:	fe842703          	lw	a4,-24(s0)
20001170:	fec42783          	lw	a5,-20(s0)
20001174:	06400613          	li	a2,100
20001178:	00000693          	li	a3,0
2000117c:	00070513          	mv	a0,a4
20001180:	00078593          	mv	a1,a5
20001184:	325000ef          	jal	20001ca8 <__umoddi3>
20001188:	00050713          	mv	a4,a0
2000118c:	00058793          	mv	a5,a1
20001190:	fdc42783          	lw	a5,-36(s0)
20001194:	00e7a423          	sw	a4,8(a5)
20001198:	00000793          	li	a5,0
2000119c:	00078513          	mv	a0,a5
200011a0:	02c12083          	lw	ra,44(sp)
200011a4:	02812403          	lw	s0,40(sp)
200011a8:	03010113          	addi	sp,sp,48
200011ac:	00008067          	ret

200011b0 <_settimeofday>:
200011b0:	fe010113          	addi	sp,sp,-32
200011b4:	00112e23          	sw	ra,28(sp)
200011b8:	00812c23          	sw	s0,24(sp)
200011bc:	02010413          	addi	s0,sp,32
200011c0:	fea42623          	sw	a0,-20(s0)
200011c4:	feb42423          	sw	a1,-24(s0)
200011c8:	fec42783          	lw	a5,-20(s0)
200011cc:	0007a703          	lw	a4,0(a5)
200011d0:	0047a783          	lw	a5,4(a5)
200011d4:	06400593          	li	a1,100
200011d8:	02b78533          	mul	a0,a5,a1
200011dc:	00000593          	li	a1,0
200011e0:	02b705b3          	mul	a1,a4,a1
200011e4:	00b50533          	add	a0,a0,a1
200011e8:	06400593          	li	a1,100
200011ec:	02b70333          	mul	t1,a4,a1
200011f0:	02b738b3          	mulhu	a7,a4,a1
200011f4:	00030813          	mv	a6,t1
200011f8:	011507b3          	add	a5,a0,a7
200011fc:	00078893          	mv	a7,a5
20001200:	00080713          	mv	a4,a6
20001204:	00088793          	mv	a5,a7
20001208:	200055b7          	lui	a1,0x20005
2000120c:	cee5ac23          	sw	a4,-776(a1) # 20004cf8 <current_time>
20001210:	cef5ae23          	sw	a5,-772(a1)
20001214:	fec42783          	lw	a5,-20(s0)
20001218:	0087a783          	lw	a5,8(a5)
2000121c:	00078613          	mv	a2,a5
20001220:	41f7d793          	srai	a5,a5,0x1f
20001224:	00078693          	mv	a3,a5
20001228:	200057b7          	lui	a5,0x20005
2000122c:	cf87a503          	lw	a0,-776(a5) # 20004cf8 <current_time>
20001230:	cfc7a583          	lw	a1,-772(a5)
20001234:	00a60733          	add	a4,a2,a0
20001238:	00070813          	mv	a6,a4
2000123c:	00c83833          	sltu	a6,a6,a2
20001240:	00b687b3          	add	a5,a3,a1
20001244:	00f806b3          	add	a3,a6,a5
20001248:	00068793          	mv	a5,a3
2000124c:	200056b7          	lui	a3,0x20005
20001250:	cee6ac23          	sw	a4,-776(a3) # 20004cf8 <current_time>
20001254:	cef6ae23          	sw	a5,-772(a3)
20001258:	00000793          	li	a5,0
2000125c:	00078513          	mv	a0,a5
20001260:	01c12083          	lw	ra,28(sp)
20001264:	01812403          	lw	s0,24(sp)
20001268:	02010113          	addi	sp,sp,32
2000126c:	00008067          	ret

20001270 <_tstchar>:
20001270:	ff010113          	addi	sp,sp,-16
20001274:	00112623          	sw	ra,12(sp)
20001278:	00812423          	sw	s0,8(sp)
2000127c:	01010413          	addi	s0,sp,16
20001280:	400147b7          	lui	a5,0x40014
20001284:	80078793          	addi	a5,a5,-2048 # 40013800 <__stack_top+0x2000dd8c>
20001288:	0007d783          	lhu	a5,0(a5)
2000128c:	01079793          	slli	a5,a5,0x10
20001290:	0107d793          	srli	a5,a5,0x10
20001294:	0207f793          	andi	a5,a5,32
20001298:	02078063          	beqz	a5,200012b8 <_tstchar+0x48>
2000129c:	400147b7          	lui	a5,0x40014
200012a0:	80078793          	addi	a5,a5,-2048 # 40013800 <__stack_top+0x2000dd8c>
200012a4:	0047d783          	lhu	a5,4(a5)
200012a8:	01079793          	slli	a5,a5,0x10
200012ac:	0107d793          	srli	a5,a5,0x10
200012b0:	0ff7f793          	zext.b	a5,a5
200012b4:	0080006f          	j	200012bc <_tstchar+0x4c>
200012b8:	00000793          	li	a5,0
200012bc:	00078513          	mv	a0,a5
200012c0:	00c12083          	lw	ra,12(sp)
200012c4:	00812403          	lw	s0,8(sp)
200012c8:	01010113          	addi	sp,sp,16
200012cc:	00008067          	ret

200012d0 <_outchar>:
200012d0:	fe010113          	addi	sp,sp,-32
200012d4:	00112e23          	sw	ra,28(sp)
200012d8:	00812c23          	sw	s0,24(sp)
200012dc:	02010413          	addi	s0,sp,32
200012e0:	00050793          	mv	a5,a0
200012e4:	fef407a3          	sb	a5,-17(s0)
200012e8:	400147b7          	lui	a5,0x40014
200012ec:	80078793          	addi	a5,a5,-2048 # 40013800 <__stack_top+0x2000dd8c>
200012f0:	fef44703          	lbu	a4,-17(s0)
200012f4:	01071713          	slli	a4,a4,0x10
200012f8:	01075713          	srli	a4,a4,0x10
200012fc:	00e79223          	sh	a4,4(a5)
20001300:	00000013          	nop
20001304:	400147b7          	lui	a5,0x40014
20001308:	80078793          	addi	a5,a5,-2048 # 40013800 <__stack_top+0x2000dd8c>
2000130c:	0007d783          	lhu	a5,0(a5)
20001310:	01079793          	slli	a5,a5,0x10
20001314:	0107d793          	srli	a5,a5,0x10
20001318:	0807f793          	andi	a5,a5,128
2000131c:	fe0784e3          	beqz	a5,20001304 <_outchar+0x34>
20001320:	00000013          	nop
20001324:	00000013          	nop
20001328:	01c12083          	lw	ra,28(sp)
2000132c:	01812403          	lw	s0,24(sp)
20001330:	02010113          	addi	sp,sp,32
20001334:	00008067          	ret

20001338 <_sbrk>:
20001338:	fd010113          	addi	sp,sp,-48
2000133c:	02112623          	sw	ra,44(sp)
20001340:	02812423          	sw	s0,40(sp)
20001344:	03010413          	addi	s0,sp,48
20001348:	fca42e23          	sw	a0,-36(s0)
2000134c:	200057b7          	lui	a5,0x20005
20001350:	d007a783          	lw	a5,-768(a5) # 20004d00 <heap_end>
20001354:	00079a63          	bnez	a5,20001368 <_sbrk+0x30>
20001358:	200057b7          	lui	a5,0x20005
2000135c:	20005737          	lui	a4,0x20005
20001360:	e7470713          	addi	a4,a4,-396 # 20004e74 <__bss_end__>
20001364:	d0e7a023          	sw	a4,-768(a5) # 20004d00 <heap_end>
20001368:	200057b7          	lui	a5,0x20005
2000136c:	d007a783          	lw	a5,-768(a5) # 20004d00 <heap_end>
20001370:	fef42623          	sw	a5,-20(s0)
20001374:	200057b7          	lui	a5,0x20005
20001378:	d007a703          	lw	a4,-768(a5) # 20004d00 <heap_end>
2000137c:	fdc42783          	lw	a5,-36(s0)
20001380:	00f70733          	add	a4,a4,a5
20001384:	200057b7          	lui	a5,0x20005
20001388:	67478793          	addi	a5,a5,1652 # 20005674 <__heap_top>
2000138c:	00e7fe63          	bgeu	a5,a4,200013a8 <_sbrk+0x70>
20001390:	318010ef          	jal	200026a8 <__errno>
20001394:	00050713          	mv	a4,a0
20001398:	00c00793          	li	a5,12
2000139c:	00f72023          	sw	a5,0(a4)
200013a0:	fff00793          	li	a5,-1
200013a4:	0200006f          	j	200013c4 <_sbrk+0x8c>
200013a8:	200057b7          	lui	a5,0x20005
200013ac:	d007a703          	lw	a4,-768(a5) # 20004d00 <heap_end>
200013b0:	fdc42783          	lw	a5,-36(s0)
200013b4:	00f70733          	add	a4,a4,a5
200013b8:	200057b7          	lui	a5,0x20005
200013bc:	d0e7a023          	sw	a4,-768(a5) # 20004d00 <heap_end>
200013c0:	fec42783          	lw	a5,-20(s0)
200013c4:	00078513          	mv	a0,a5
200013c8:	02c12083          	lw	ra,44(sp)
200013cc:	02812403          	lw	s0,40(sp)
200013d0:	03010113          	addi	sp,sp,48
200013d4:	00008067          	ret

200013d8 <_crt_init>:
200013d8:	fe010113          	addi	sp,sp,-32
200013dc:	00112e23          	sw	ra,28(sp)
200013e0:	00812c23          	sw	s0,24(sp)
200013e4:	02010413          	addi	s0,sp,32
200013e8:	00000013          	nop
200013ec:	98dff0ef          	jal	20000d78 <_pll_init_144>
200013f0:	00050793          	mv	a5,a0
200013f4:	fe079ce3          	bnez	a5,200013ec <_crt_init+0x14>
200013f8:	400217b7          	lui	a5,0x40021
200013fc:	0187a683          	lw	a3,24(a5) # 40021018 <__stack_top+0x2001b5a4>
20001400:	400217b7          	lui	a5,0x40021
20001404:	00004737          	lui	a4,0x4
20001408:	00e6e733          	or	a4,a3,a4
2000140c:	00e7ac23          	sw	a4,24(a5) # 40021018 <__stack_top+0x2001b5a4>
20001410:	400217b7          	lui	a5,0x40021
20001414:	0187a703          	lw	a4,24(a5) # 40021018 <__stack_top+0x2001b5a4>
20001418:	400217b7          	lui	a5,0x40021
2000141c:	00476713          	ori	a4,a4,4
20001420:	00e7ac23          	sw	a4,24(a5) # 40021018 <__stack_top+0x2001b5a4>
20001424:	400217b7          	lui	a5,0x40021
20001428:	0187a703          	lw	a4,24(a5) # 40021018 <__stack_top+0x2001b5a4>
2000142c:	400217b7          	lui	a5,0x40021
20001430:	00176713          	ori	a4,a4,1
20001434:	00e7ac23          	sw	a4,24(a5) # 40021018 <__stack_top+0x2001b5a4>
20001438:	400217b7          	lui	a5,0x40021
2000143c:	0187a703          	lw	a4,24(a5) # 40021018 <__stack_top+0x2001b5a4>
20001440:	400217b7          	lui	a5,0x40021
20001444:	02076713          	ori	a4,a4,32
20001448:	00e7ac23          	sw	a4,24(a5) # 40021018 <__stack_top+0x2001b5a4>
2000144c:	400217b7          	lui	a5,0x40021
20001450:	0187a703          	lw	a4,24(a5) # 40021018 <__stack_top+0x2001b5a4>
20001454:	400217b7          	lui	a5,0x40021
20001458:	04076713          	ori	a4,a4,64
2000145c:	00e7ac23          	sw	a4,24(a5) # 40021018 <__stack_top+0x2001b5a4>
20001460:	400217b7          	lui	a5,0x40021
20001464:	00c7a683          	lw	a3,12(a5) # 4002100c <__stack_top+0x2001b598>
20001468:	400217b7          	lui	a5,0x40021
2000146c:	00004737          	lui	a4,0x4
20001470:	06070713          	addi	a4,a4,96 # 4060 <_start-0x1fffbfa0>
20001474:	00e6e733          	or	a4,a3,a4
20001478:	00e7a623          	sw	a4,12(a5) # 4002100c <__stack_top+0x2001b598>
2000147c:	400217b7          	lui	a5,0x40021
20001480:	00c7a683          	lw	a3,12(a5) # 4002100c <__stack_top+0x2001b598>
20001484:	400217b7          	lui	a5,0x40021
20001488:	ffffc737          	lui	a4,0xffffc
2000148c:	f9f70713          	addi	a4,a4,-97 # ffffbf9f <__stack_top+0xdfff652b>
20001490:	00e6f733          	and	a4,a3,a4
20001494:	00e7a623          	sw	a4,12(a5) # 4002100c <__stack_top+0x2001b598>
20001498:	400117b7          	lui	a5,0x40011
2000149c:	80478793          	addi	a5,a5,-2044 # 40010804 <__stack_top+0x2000ad90>
200014a0:	0007a703          	lw	a4,0(a5)
200014a4:	400117b7          	lui	a5,0x40011
200014a8:	80478793          	addi	a5,a5,-2044 # 40010804 <__stack_top+0x2000ad90>
200014ac:	0b076713          	ori	a4,a4,176
200014b0:	00e7a023          	sw	a4,0(a5)
200014b4:	400117b7          	lui	a5,0x40011
200014b8:	80478793          	addi	a5,a5,-2044 # 40010804 <__stack_top+0x2000ad90>
200014bc:	0007a703          	lw	a4,0(a5)
200014c0:	400117b7          	lui	a5,0x40011
200014c4:	80478793          	addi	a5,a5,-2044 # 40010804 <__stack_top+0x2000ad90>
200014c8:	40076713          	ori	a4,a4,1024
200014cc:	00e7a023          	sw	a4,0(a5)
200014d0:	400147b7          	lui	a5,0x40014
200014d4:	80078793          	addi	a5,a5,-2048 # 40013800 <__stack_top+0x2000dd8c>
200014d8:	4e200713          	li	a4,1250
200014dc:	00e79423          	sh	a4,8(a5)
200014e0:	400147b7          	lui	a5,0x40014
200014e4:	80078793          	addi	a5,a5,-2048 # 40013800 <__stack_top+0x2000dd8c>
200014e8:	00002737          	lui	a4,0x2
200014ec:	00c70713          	addi	a4,a4,12 # 200c <_start-0x1fffdff4>
200014f0:	00e79623          	sh	a4,12(a5)
200014f4:	400217b7          	lui	a5,0x40021
200014f8:	01c7a703          	lw	a4,28(a5) # 4002101c <__stack_top+0x2001b5a8>
200014fc:	400217b7          	lui	a5,0x40021
20001500:	01076713          	ori	a4,a4,16
20001504:	00e7ae23          	sw	a4,28(a5) # 4002101c <__stack_top+0x2001b5a8>
20001508:	400217b7          	lui	a5,0x40021
2000150c:	0107a703          	lw	a4,16(a5) # 40021010 <__stack_top+0x2001b59c>
20001510:	400217b7          	lui	a5,0x40021
20001514:	01076713          	ori	a4,a4,16
20001518:	00e7a823          	sw	a4,16(a5) # 40021010 <__stack_top+0x2001b59c>
2000151c:	400217b7          	lui	a5,0x40021
20001520:	0107a703          	lw	a4,16(a5) # 40021010 <__stack_top+0x2001b59c>
20001524:	400217b7          	lui	a5,0x40021
20001528:	fef77713          	andi	a4,a4,-17
2000152c:	00e7a823          	sw	a4,16(a5) # 40021010 <__stack_top+0x2001b59c>
20001530:	400217b7          	lui	a5,0x40021
20001534:	01c7a703          	lw	a4,28(a5) # 4002101c <__stack_top+0x2001b5a8>
20001538:	400217b7          	lui	a5,0x40021
2000153c:	02076713          	ori	a4,a4,32
20001540:	00e7ae23          	sw	a4,28(a5) # 4002101c <__stack_top+0x2001b5a8>
20001544:	400217b7          	lui	a5,0x40021
20001548:	0107a703          	lw	a4,16(a5) # 40021010 <__stack_top+0x2001b59c>
2000154c:	400217b7          	lui	a5,0x40021
20001550:	02076713          	ori	a4,a4,32
20001554:	00e7a823          	sw	a4,16(a5) # 40021010 <__stack_top+0x2001b59c>
20001558:	400217b7          	lui	a5,0x40021
2000155c:	0107a703          	lw	a4,16(a5) # 40021010 <__stack_top+0x2001b59c>
20001560:	400217b7          	lui	a5,0x40021
20001564:	fdf77713          	andi	a4,a4,-33
20001568:	00e7a823          	sw	a4,16(a5) # 40021010 <__stack_top+0x2001b59c>
2000156c:	200057b7          	lui	a5,0x20005
20001570:	d007a023          	sw	zero,-768(a5) # 20004d00 <heap_end>
20001574:	200057b7          	lui	a5,0x20005
20001578:	cf878793          	addi	a5,a5,-776 # 20004cf8 <current_time>
2000157c:	fef42623          	sw	a5,-20(s0)
20001580:	200057b7          	lui	a5,0x20005
20001584:	e7478793          	addi	a5,a5,-396 # 20004e74 <__bss_end__>
20001588:	fef42423          	sw	a5,-24(s0)
2000158c:	0140006f          	j	200015a0 <_crt_init+0x1c8>
20001590:	fec42783          	lw	a5,-20(s0)
20001594:	00178713          	addi	a4,a5,1
20001598:	fee42623          	sw	a4,-20(s0)
2000159c:	00078023          	sb	zero,0(a5)
200015a0:	fec42703          	lw	a4,-20(s0)
200015a4:	fe842783          	lw	a5,-24(s0)
200015a8:	fef764e3          	bltu	a4,a5,20001590 <_crt_init+0x1b8>
200015ac:	200057b7          	lui	a5,0x20005
200015b0:	cf07a783          	lw	a5,-784(a5) # 20004cf0 <_impure_ptr>
200015b4:	0047a783          	lw	a5,4(a5)
200015b8:	00000693          	li	a3,0
200015bc:	00200613          	li	a2,2
200015c0:	00000593          	li	a1,0
200015c4:	00078513          	mv	a0,a5
200015c8:	4c1000ef          	jal	20002288 <setvbuf>
200015cc:	200057b7          	lui	a5,0x20005
200015d0:	cf07a783          	lw	a5,-784(a5) # 20004cf0 <_impure_ptr>
200015d4:	0087a783          	lw	a5,8(a5)
200015d8:	00000693          	li	a3,0
200015dc:	00200613          	li	a2,2
200015e0:	00000593          	li	a1,0
200015e4:	00078513          	mv	a0,a5
200015e8:	4a1000ef          	jal	20002288 <setvbuf>
200015ec:	200057b7          	lui	a5,0x20005
200015f0:	cf07a783          	lw	a5,-784(a5) # 20004cf0 <_impure_ptr>
200015f4:	00c7a783          	lw	a5,12(a5)
200015f8:	00000693          	li	a3,0
200015fc:	00200613          	li	a2,2
20001600:	00000593          	li	a1,0
20001604:	00078513          	mv	a0,a5
20001608:	481000ef          	jal	20002288 <setvbuf>
2000160c:	00000013          	nop
20001610:	01c12083          	lw	ra,28(sp)
20001614:	01812403          	lw	s0,24(sp)
20001618:	02010113          	addi	sp,sp,32
2000161c:	00008067          	ret

20001620 <_crt_deinit>:
20001620:	ff010113          	addi	sp,sp,-16
20001624:	00112623          	sw	ra,12(sp)
20001628:	00812423          	sw	s0,8(sp)
2000162c:	01010413          	addi	s0,sp,16
20001630:	00000013          	nop
20001634:	00c12083          	lw	ra,12(sp)
20001638:	00812403          	lw	s0,8(sp)
2000163c:	01010113          	addi	sp,sp,16
20001640:	00008067          	ret

20001644 <_exit>:
20001644:	fe010113          	addi	sp,sp,-32
20001648:	00112e23          	sw	ra,28(sp)
2000164c:	00812c23          	sw	s0,24(sp)
20001650:	02010413          	addi	s0,sp,32
20001654:	fea42623          	sw	a0,-20(s0)
20001658:	fec42783          	lw	a5,-20(s0)
2000165c:	00078a63          	beqz	a5,20001670 <_exit+0x2c>
20001660:	fec42583          	lw	a1,-20(s0)
20001664:	200057b7          	lui	a5,0x20005
20001668:	aa878513          	addi	a0,a5,-1368 # 20004aa8 <_malloc_usable_size_r+0x438>
2000166c:	299000ef          	jal	20002104 <iprintf>
20001670:	fb1ff0ef          	jal	20001620 <_crt_deinit>
20001674:	00000013          	nop
20001678:	01c12083          	lw	ra,28(sp)
2000167c:	01812403          	lw	s0,24(sp)
20001680:	02010113          	addi	sp,sp,32
20001684:	00008067          	ret

20001688 <_close>:
20001688:	fe010113          	addi	sp,sp,-32
2000168c:	00112e23          	sw	ra,28(sp)
20001690:	00812c23          	sw	s0,24(sp)
20001694:	02010413          	addi	s0,sp,32
20001698:	fea42623          	sw	a0,-20(s0)
2000169c:	fff00793          	li	a5,-1
200016a0:	00078513          	mv	a0,a5
200016a4:	01c12083          	lw	ra,28(sp)
200016a8:	01812403          	lw	s0,24(sp)
200016ac:	02010113          	addi	sp,sp,32
200016b0:	00008067          	ret

200016b4 <_open>:
200016b4:	fe010113          	addi	sp,sp,-32
200016b8:	00112e23          	sw	ra,28(sp)
200016bc:	00812c23          	sw	s0,24(sp)
200016c0:	02010413          	addi	s0,sp,32
200016c4:	fea42623          	sw	a0,-20(s0)
200016c8:	feb42423          	sw	a1,-24(s0)
200016cc:	fec42223          	sw	a2,-28(s0)
200016d0:	fff00793          	li	a5,-1
200016d4:	00078513          	mv	a0,a5
200016d8:	01c12083          	lw	ra,28(sp)
200016dc:	01812403          	lw	s0,24(sp)
200016e0:	02010113          	addi	sp,sp,32
200016e4:	00008067          	ret

200016e8 <_fstat>:
200016e8:	fe010113          	addi	sp,sp,-32
200016ec:	00112e23          	sw	ra,28(sp)
200016f0:	00812c23          	sw	s0,24(sp)
200016f4:	02010413          	addi	s0,sp,32
200016f8:	fea42623          	sw	a0,-20(s0)
200016fc:	feb42423          	sw	a1,-24(s0)
20001700:	fe842783          	lw	a5,-24(s0)
20001704:	00002737          	lui	a4,0x2
20001708:	00e7a223          	sw	a4,4(a5)
2000170c:	00000793          	li	a5,0
20001710:	00078513          	mv	a0,a5
20001714:	01c12083          	lw	ra,28(sp)
20001718:	01812403          	lw	s0,24(sp)
2000171c:	02010113          	addi	sp,sp,32
20001720:	00008067          	ret

20001724 <_lseek>:
20001724:	fe010113          	addi	sp,sp,-32
20001728:	00112e23          	sw	ra,28(sp)
2000172c:	00812c23          	sw	s0,24(sp)
20001730:	02010413          	addi	s0,sp,32
20001734:	fea42623          	sw	a0,-20(s0)
20001738:	feb42423          	sw	a1,-24(s0)
2000173c:	fec42223          	sw	a2,-28(s0)
20001740:	00000793          	li	a5,0
20001744:	00078513          	mv	a0,a5
20001748:	01c12083          	lw	ra,28(sp)
2000174c:	01812403          	lw	s0,24(sp)
20001750:	02010113          	addi	sp,sp,32
20001754:	00008067          	ret

20001758 <_isatty>:
20001758:	fe010113          	addi	sp,sp,-32
2000175c:	00112e23          	sw	ra,28(sp)
20001760:	00812c23          	sw	s0,24(sp)
20001764:	02010413          	addi	s0,sp,32
20001768:	fea42623          	sw	a0,-20(s0)
2000176c:	00000793          	li	a5,0
20001770:	00078513          	mv	a0,a5
20001774:	01c12083          	lw	ra,28(sp)
20001778:	01812403          	lw	s0,24(sp)
2000177c:	02010113          	addi	sp,sp,32
20001780:	00008067          	ret

20001784 <_write>:
20001784:	fd010113          	addi	sp,sp,-48
20001788:	02112623          	sw	ra,44(sp)
2000178c:	02812423          	sw	s0,40(sp)
20001790:	03010413          	addi	s0,sp,48
20001794:	fca42e23          	sw	a0,-36(s0)
20001798:	fcb42c23          	sw	a1,-40(s0)
2000179c:	fcc42a23          	sw	a2,-44(s0)
200017a0:	fd442783          	lw	a5,-44(s0)
200017a4:	fef42623          	sw	a5,-20(s0)
200017a8:	01c0006f          	j	200017c4 <_write+0x40>
200017ac:	fd842783          	lw	a5,-40(s0)
200017b0:	00178713          	addi	a4,a5,1
200017b4:	fce42c23          	sw	a4,-40(s0)
200017b8:	0007c783          	lbu	a5,0(a5)
200017bc:	00078513          	mv	a0,a5
200017c0:	b11ff0ef          	jal	200012d0 <_outchar>
200017c4:	fd442783          	lw	a5,-44(s0)
200017c8:	fff78713          	addi	a4,a5,-1
200017cc:	fce42a23          	sw	a4,-44(s0)
200017d0:	fc079ee3          	bnez	a5,200017ac <_write+0x28>
200017d4:	fec42783          	lw	a5,-20(s0)
200017d8:	00078513          	mv	a0,a5
200017dc:	02c12083          	lw	ra,44(sp)
200017e0:	02812403          	lw	s0,40(sp)
200017e4:	03010113          	addi	sp,sp,48
200017e8:	00008067          	ret

200017ec <_read>:
200017ec:	fd010113          	addi	sp,sp,-48
200017f0:	02112623          	sw	ra,44(sp)
200017f4:	02812423          	sw	s0,40(sp)
200017f8:	03010413          	addi	s0,sp,48
200017fc:	fca42e23          	sw	a0,-36(s0)
20001800:	fcb42c23          	sw	a1,-40(s0)
20001804:	fcc42a23          	sw	a2,-44(s0)
20001808:	fe042623          	sw	zero,-20(s0)
2000180c:	a65ff0ef          	jal	20001270 <_tstchar>
20001810:	00050793          	mv	a5,a0
20001814:	fef405a3          	sb	a5,-21(s0)
20001818:	feb44783          	lbu	a5,-21(s0)
2000181c:	02078263          	beqz	a5,20001840 <_read+0x54>
20001820:	fd842783          	lw	a5,-40(s0)
20001824:	00178713          	addi	a4,a5,1
20001828:	fce42c23          	sw	a4,-40(s0)
2000182c:	feb44703          	lbu	a4,-21(s0)
20001830:	00e78023          	sb	a4,0(a5)
20001834:	fec42783          	lw	a5,-20(s0)
20001838:	00178793          	addi	a5,a5,1
2000183c:	fef42623          	sw	a5,-20(s0)
20001840:	fd442703          	lw	a4,-44(s0)
20001844:	fec42783          	lw	a5,-20(s0)
20001848:	fcf712e3          	bne	a4,a5,2000180c <_read+0x20>
2000184c:	fec42783          	lw	a5,-20(s0)
20001850:	00078513          	mv	a0,a5
20001854:	02c12083          	lw	ra,44(sp)
20001858:	02812403          	lw	s0,40(sp)
2000185c:	03010113          	addi	sp,sp,48
20001860:	00008067          	ret

20001864 <_getpid>:
20001864:	ff010113          	addi	sp,sp,-16
20001868:	00112623          	sw	ra,12(sp)
2000186c:	00812423          	sw	s0,8(sp)
20001870:	01010413          	addi	s0,sp,16
20001874:	00000793          	li	a5,0
20001878:	00078513          	mv	a0,a5
2000187c:	00c12083          	lw	ra,12(sp)
20001880:	00812403          	lw	s0,8(sp)
20001884:	01010113          	addi	sp,sp,16
20001888:	00008067          	ret

2000188c <_kill>:
2000188c:	fe010113          	addi	sp,sp,-32
20001890:	00112e23          	sw	ra,28(sp)
20001894:	00812c23          	sw	s0,24(sp)
20001898:	02010413          	addi	s0,sp,32
2000189c:	fea42623          	sw	a0,-20(s0)
200018a0:	feb42423          	sw	a1,-24(s0)
200018a4:	00000793          	li	a5,0
200018a8:	00078513          	mv	a0,a5
200018ac:	01c12083          	lw	ra,28(sp)
200018b0:	01812403          	lw	s0,24(sp)
200018b4:	02010113          	addi	sp,sp,32
200018b8:	00008067          	ret

200018bc <__udivdi3>:
200018bc:	00060713          	mv	a4,a2
200018c0:	00068893          	mv	a7,a3
200018c4:	00050813          	mv	a6,a0
200018c8:	00058313          	mv	t1,a1
200018cc:	24069463          	bnez	a3,20001b14 <__udivdi3+0x258>
200018d0:	200057b7          	lui	a5,0x20005
200018d4:	ac878793          	addi	a5,a5,-1336 # 20004ac8 <__clz_tab>
200018d8:	0ec5f463          	bgeu	a1,a2,200019c0 <__udivdi3+0x104>
200018dc:	000106b7          	lui	a3,0x10
200018e0:	0cd67063          	bgeu	a2,a3,200019a0 <__udivdi3+0xe4>
200018e4:	10063693          	sltiu	a3,a2,256
200018e8:	0016b693          	seqz	a3,a3
200018ec:	00369693          	slli	a3,a3,0x3
200018f0:	00d65e33          	srl	t3,a2,a3
200018f4:	01c787b3          	add	a5,a5,t3
200018f8:	0007c783          	lbu	a5,0(a5)
200018fc:	00d787b3          	add	a5,a5,a3
20001900:	02000693          	li	a3,32
20001904:	00d78e63          	beq	a5,a3,20001920 <__udivdi3+0x64>
20001908:	40f686b3          	sub	a3,a3,a5
2000190c:	00d59333          	sll	t1,a1,a3
20001910:	00f557b3          	srl	a5,a0,a5
20001914:	00d61733          	sll	a4,a2,a3
20001918:	0067e333          	or	t1,a5,t1
2000191c:	00d51833          	sll	a6,a0,a3
20001920:	01075513          	srli	a0,a4,0x10
20001924:	02a357b3          	divu	a5,t1,a0
20001928:	01071593          	slli	a1,a4,0x10
2000192c:	0105d593          	srli	a1,a1,0x10
20001930:	01085693          	srli	a3,a6,0x10
20001934:	02a37333          	remu	t1,t1,a0
20001938:	02f58633          	mul	a2,a1,a5
2000193c:	01031313          	slli	t1,t1,0x10
20001940:	0066e6b3          	or	a3,a3,t1
20001944:	00c6fa63          	bgeu	a3,a2,20001958 <__udivdi3+0x9c>
20001948:	00d706b3          	add	a3,a4,a3
2000194c:	00c6f463          	bgeu	a3,a2,20001954 <__udivdi3+0x98>
20001950:	06e6f263          	bgeu	a3,a4,200019b4 <__udivdi3+0xf8>
20001954:	fff78793          	addi	a5,a5,-1
20001958:	40c686b3          	sub	a3,a3,a2
2000195c:	02a6d633          	divu	a2,a3,a0
20001960:	01081813          	slli	a6,a6,0x10
20001964:	01085813          	srli	a6,a6,0x10
20001968:	02a6f6b3          	remu	a3,a3,a0
2000196c:	02c585b3          	mul	a1,a1,a2
20001970:	01069693          	slli	a3,a3,0x10
20001974:	00d86833          	or	a6,a6,a3
20001978:	00b87a63          	bgeu	a6,a1,2000198c <__udivdi3+0xd0>
2000197c:	01070833          	add	a6,a4,a6
20001980:	00b87463          	bgeu	a6,a1,20001988 <__udivdi3+0xcc>
20001984:	18e87463          	bgeu	a6,a4,20001b0c <__udivdi3+0x250>
20001988:	fff60613          	addi	a2,a2,-1
2000198c:	01079793          	slli	a5,a5,0x10
20001990:	00c7e7b3          	or	a5,a5,a2
20001994:	00078513          	mv	a0,a5
20001998:	00088593          	mv	a1,a7
2000199c:	00008067          	ret
200019a0:	01000e37          	lui	t3,0x1000
200019a4:	01800693          	li	a3,24
200019a8:	f5c674e3          	bgeu	a2,t3,200018f0 <__udivdi3+0x34>
200019ac:	01000693          	li	a3,16
200019b0:	f41ff06f          	j	200018f0 <__udivdi3+0x34>
200019b4:	ffe78793          	addi	a5,a5,-2
200019b8:	00e686b3          	add	a3,a3,a4
200019bc:	f9dff06f          	j	20001958 <__udivdi3+0x9c>
200019c0:	00000693          	li	a3,0
200019c4:	00060c63          	beqz	a2,200019dc <__udivdi3+0x120>
200019c8:	000106b7          	lui	a3,0x10
200019cc:	06d67863          	bgeu	a2,a3,20001a3c <__udivdi3+0x180>
200019d0:	10063693          	sltiu	a3,a2,256
200019d4:	0016b693          	seqz	a3,a3
200019d8:	00369693          	slli	a3,a3,0x3
200019dc:	00d658b3          	srl	a7,a2,a3
200019e0:	011787b3          	add	a5,a5,a7
200019e4:	0007c783          	lbu	a5,0(a5)
200019e8:	00d787b3          	add	a5,a5,a3
200019ec:	02000693          	li	a3,32
200019f0:	06d79063          	bne	a5,a3,20001a50 <__udivdi3+0x194>
200019f4:	40c58633          	sub	a2,a1,a2
200019f8:	00100893          	li	a7,1
200019fc:	01075513          	srli	a0,a4,0x10
20001a00:	02a657b3          	divu	a5,a2,a0
20001a04:	01071593          	slli	a1,a4,0x10
20001a08:	0105d593          	srli	a1,a1,0x10
20001a0c:	01085693          	srli	a3,a6,0x10
20001a10:	02a67633          	remu	a2,a2,a0
20001a14:	02f58333          	mul	t1,a1,a5
20001a18:	01061613          	slli	a2,a2,0x10
20001a1c:	00c6e6b3          	or	a3,a3,a2
20001a20:	0066fa63          	bgeu	a3,t1,20001a34 <__udivdi3+0x178>
20001a24:	00d706b3          	add	a3,a4,a3
20001a28:	0066f463          	bgeu	a3,t1,20001a30 <__udivdi3+0x174>
20001a2c:	0ce6fa63          	bgeu	a3,a4,20001b00 <__udivdi3+0x244>
20001a30:	fff78793          	addi	a5,a5,-1
20001a34:	406686b3          	sub	a3,a3,t1
20001a38:	f25ff06f          	j	2000195c <__udivdi3+0xa0>
20001a3c:	010008b7          	lui	a7,0x1000
20001a40:	01800693          	li	a3,24
20001a44:	f9167ce3          	bgeu	a2,a7,200019dc <__udivdi3+0x120>
20001a48:	01000693          	li	a3,16
20001a4c:	f91ff06f          	j	200019dc <__udivdi3+0x120>
20001a50:	40f68833          	sub	a6,a3,a5
20001a54:	01061733          	sll	a4,a2,a6
20001a58:	00f5d6b3          	srl	a3,a1,a5
20001a5c:	010595b3          	sll	a1,a1,a6
20001a60:	00f557b3          	srl	a5,a0,a5
20001a64:	01051833          	sll	a6,a0,a6
20001a68:	01075513          	srli	a0,a4,0x10
20001a6c:	02a6d8b3          	divu	a7,a3,a0
20001a70:	01071613          	slli	a2,a4,0x10
20001a74:	01065613          	srli	a2,a2,0x10
20001a78:	00b7e7b3          	or	a5,a5,a1
20001a7c:	02a6f6b3          	remu	a3,a3,a0
20001a80:	03160333          	mul	t1,a2,a7
20001a84:	01069593          	slli	a1,a3,0x10
20001a88:	0107d693          	srli	a3,a5,0x10
20001a8c:	00b6e6b3          	or	a3,a3,a1
20001a90:	0066fa63          	bgeu	a3,t1,20001aa4 <__udivdi3+0x1e8>
20001a94:	00d706b3          	add	a3,a4,a3
20001a98:	0066f463          	bgeu	a3,t1,20001aa0 <__udivdi3+0x1e4>
20001a9c:	04e6f663          	bgeu	a3,a4,20001ae8 <__udivdi3+0x22c>
20001aa0:	fff88893          	addi	a7,a7,-1 # ffffff <_start-0x1f000001>
20001aa4:	406686b3          	sub	a3,a3,t1
20001aa8:	02a6d5b3          	divu	a1,a3,a0
20001aac:	01079793          	slli	a5,a5,0x10
20001ab0:	0107d793          	srli	a5,a5,0x10
20001ab4:	02a6f6b3          	remu	a3,a3,a0
20001ab8:	02b60633          	mul	a2,a2,a1
20001abc:	01069693          	slli	a3,a3,0x10
20001ac0:	00d7e7b3          	or	a5,a5,a3
20001ac4:	00c7fa63          	bgeu	a5,a2,20001ad8 <__udivdi3+0x21c>
20001ac8:	00f707b3          	add	a5,a4,a5
20001acc:	00c7f463          	bgeu	a5,a2,20001ad4 <__udivdi3+0x218>
20001ad0:	02e7f263          	bgeu	a5,a4,20001af4 <__udivdi3+0x238>
20001ad4:	fff58593          	addi	a1,a1,-1
20001ad8:	01089893          	slli	a7,a7,0x10
20001adc:	40c78633          	sub	a2,a5,a2
20001ae0:	00b8e8b3          	or	a7,a7,a1
20001ae4:	f19ff06f          	j	200019fc <__udivdi3+0x140>
20001ae8:	ffe88893          	addi	a7,a7,-2
20001aec:	00e686b3          	add	a3,a3,a4
20001af0:	fb5ff06f          	j	20001aa4 <__udivdi3+0x1e8>
20001af4:	ffe58593          	addi	a1,a1,-2
20001af8:	00e787b3          	add	a5,a5,a4
20001afc:	fddff06f          	j	20001ad8 <__udivdi3+0x21c>
20001b00:	ffe78793          	addi	a5,a5,-2
20001b04:	00e686b3          	add	a3,a3,a4
20001b08:	f2dff06f          	j	20001a34 <__udivdi3+0x178>
20001b0c:	ffe60613          	addi	a2,a2,-2
20001b10:	e7dff06f          	j	2000198c <__udivdi3+0xd0>
20001b14:	18d5e463          	bltu	a1,a3,20001c9c <__udivdi3+0x3e0>
20001b18:	000107b7          	lui	a5,0x10
20001b1c:	04f6f463          	bgeu	a3,a5,20001b64 <__udivdi3+0x2a8>
20001b20:	1006b793          	sltiu	a5,a3,256
20001b24:	0017b793          	seqz	a5,a5
20001b28:	00379793          	slli	a5,a5,0x3
20001b2c:	20005737          	lui	a4,0x20005
20001b30:	00f6d833          	srl	a6,a3,a5
20001b34:	ac870713          	addi	a4,a4,-1336 # 20004ac8 <__clz_tab>
20001b38:	01070733          	add	a4,a4,a6
20001b3c:	00074703          	lbu	a4,0(a4)
20001b40:	02000813          	li	a6,32
20001b44:	00f70733          	add	a4,a4,a5
20001b48:	03071863          	bne	a4,a6,20001b78 <__udivdi3+0x2bc>
20001b4c:	00c537b3          	sltu	a5,a0,a2
20001b50:	0017b793          	seqz	a5,a5
20001b54:	00b6b6b3          	sltu	a3,a3,a1
20001b58:	00d7e7b3          	or	a5,a5,a3
20001b5c:	00000893          	li	a7,0
20001b60:	e35ff06f          	j	20001994 <__udivdi3+0xd8>
20001b64:	01000737          	lui	a4,0x1000
20001b68:	01800793          	li	a5,24
20001b6c:	fce6f0e3          	bgeu	a3,a4,20001b2c <__udivdi3+0x270>
20001b70:	01000793          	li	a5,16
20001b74:	fb9ff06f          	j	20001b2c <__udivdi3+0x270>
20001b78:	40e80833          	sub	a6,a6,a4
20001b7c:	00e658b3          	srl	a7,a2,a4
20001b80:	010696b3          	sll	a3,a3,a6
20001b84:	00d8e8b3          	or	a7,a7,a3
20001b88:	0108de13          	srli	t3,a7,0x10
20001b8c:	00e5d6b3          	srl	a3,a1,a4
20001b90:	03c6d7b3          	divu	a5,a3,t3
20001b94:	01089313          	slli	t1,a7,0x10
20001b98:	01035313          	srli	t1,t1,0x10
20001b9c:	010595b3          	sll	a1,a1,a6
20001ba0:	00e55733          	srl	a4,a0,a4
20001ba4:	00b76733          	or	a4,a4,a1
20001ba8:	01061633          	sll	a2,a2,a6
20001bac:	03c6f6b3          	remu	a3,a3,t3
20001bb0:	02f30eb3          	mul	t4,t1,a5
20001bb4:	01069593          	slli	a1,a3,0x10
20001bb8:	01075693          	srli	a3,a4,0x10
20001bbc:	00b6e6b3          	or	a3,a3,a1
20001bc0:	01d6fa63          	bgeu	a3,t4,20001bd4 <__udivdi3+0x318>
20001bc4:	00d886b3          	add	a3,a7,a3
20001bc8:	01d6f463          	bgeu	a3,t4,20001bd0 <__udivdi3+0x314>
20001bcc:	0b16fc63          	bgeu	a3,a7,20001c84 <__udivdi3+0x3c8>
20001bd0:	fff78793          	addi	a5,a5,-1 # ffff <_start-0x1fff0001>
20001bd4:	41d686b3          	sub	a3,a3,t4
20001bd8:	03c6d5b3          	divu	a1,a3,t3
20001bdc:	01071713          	slli	a4,a4,0x10
20001be0:	01075713          	srli	a4,a4,0x10
20001be4:	03c6f6b3          	remu	a3,a3,t3
20001be8:	02b30333          	mul	t1,t1,a1
20001bec:	01069693          	slli	a3,a3,0x10
20001bf0:	00d76733          	or	a4,a4,a3
20001bf4:	00677a63          	bgeu	a4,t1,20001c08 <__udivdi3+0x34c>
20001bf8:	00e88733          	add	a4,a7,a4
20001bfc:	00677463          	bgeu	a4,t1,20001c04 <__udivdi3+0x348>
20001c00:	09177863          	bgeu	a4,a7,20001c90 <__udivdi3+0x3d4>
20001c04:	fff58593          	addi	a1,a1,-1
20001c08:	01079793          	slli	a5,a5,0x10
20001c0c:	00b7e7b3          	or	a5,a5,a1
20001c10:	40670733          	sub	a4,a4,t1
20001c14:	01059593          	slli	a1,a1,0x10
20001c18:	01061313          	slli	t1,a2,0x10
20001c1c:	0105d593          	srli	a1,a1,0x10
20001c20:	0107d893          	srli	a7,a5,0x10
20001c24:	01035313          	srli	t1,t1,0x10
20001c28:	01065613          	srli	a2,a2,0x10
20001c2c:	02658e33          	mul	t3,a1,t1
20001c30:	02688333          	mul	t1,a7,t1
20001c34:	010e5693          	srli	a3,t3,0x10
20001c38:	02c585b3          	mul	a1,a1,a2
20001c3c:	006585b3          	add	a1,a1,t1
20001c40:	00b686b3          	add	a3,a3,a1
20001c44:	02c888b3          	mul	a7,a7,a2
20001c48:	0066f663          	bgeu	a3,t1,20001c54 <__udivdi3+0x398>
20001c4c:	00010637          	lui	a2,0x10
20001c50:	00c888b3          	add	a7,a7,a2
20001c54:	0106d613          	srli	a2,a3,0x10
20001c58:	01160633          	add	a2,a2,a7
20001c5c:	02c76063          	bltu	a4,a2,20001c7c <__udivdi3+0x3c0>
20001c60:	010e1e13          	slli	t3,t3,0x10
20001c64:	01069693          	slli	a3,a3,0x10
20001c68:	010e5e13          	srli	t3,t3,0x10
20001c6c:	01051533          	sll	a0,a0,a6
20001c70:	01c686b3          	add	a3,a3,t3
20001c74:	eed574e3          	bgeu	a0,a3,20001b5c <__udivdi3+0x2a0>
20001c78:	eec712e3          	bne	a4,a2,20001b5c <__udivdi3+0x2a0>
20001c7c:	fff78793          	addi	a5,a5,-1
20001c80:	eddff06f          	j	20001b5c <__udivdi3+0x2a0>
20001c84:	ffe78793          	addi	a5,a5,-2
20001c88:	011686b3          	add	a3,a3,a7
20001c8c:	f49ff06f          	j	20001bd4 <__udivdi3+0x318>
20001c90:	ffe58593          	addi	a1,a1,-2
20001c94:	01170733          	add	a4,a4,a7
20001c98:	f71ff06f          	j	20001c08 <__udivdi3+0x34c>
20001c9c:	00000893          	li	a7,0
20001ca0:	00000793          	li	a5,0
20001ca4:	cf1ff06f          	j	20001994 <__udivdi3+0xd8>

20001ca8 <__umoddi3>:
20001ca8:	00060813          	mv	a6,a2
20001cac:	00050793          	mv	a5,a0
20001cb0:	00058713          	mv	a4,a1
20001cb4:	24069463          	bnez	a3,20001efc <__umoddi3+0x254>
20001cb8:	200056b7          	lui	a3,0x20005
20001cbc:	ac868693          	addi	a3,a3,-1336 # 20004ac8 <__clz_tab>
20001cc0:	0ec5f863          	bgeu	a1,a2,20001db0 <__umoddi3+0x108>
20001cc4:	000108b7          	lui	a7,0x10
20001cc8:	0d167a63          	bgeu	a2,a7,20001d9c <__umoddi3+0xf4>
20001ccc:	10063893          	sltiu	a7,a2,256
20001cd0:	0018b893          	seqz	a7,a7
20001cd4:	00389893          	slli	a7,a7,0x3
20001cd8:	01165333          	srl	t1,a2,a7
20001cdc:	006686b3          	add	a3,a3,t1
20001ce0:	0006c683          	lbu	a3,0(a3)
20001ce4:	02000313          	li	t1,32
20001ce8:	011686b3          	add	a3,a3,a7
20001cec:	40d308b3          	sub	a7,t1,a3
20001cf0:	00668c63          	beq	a3,t1,20001d08 <__umoddi3+0x60>
20001cf4:	01159733          	sll	a4,a1,a7
20001cf8:	00d556b3          	srl	a3,a0,a3
20001cfc:	01161833          	sll	a6,a2,a7
20001d00:	00e6e733          	or	a4,a3,a4
20001d04:	011517b3          	sll	a5,a0,a7
20001d08:	01085513          	srli	a0,a6,0x10
20001d0c:	02a756b3          	divu	a3,a4,a0
20001d10:	01081313          	slli	t1,a6,0x10
20001d14:	01035313          	srli	t1,t1,0x10
20001d18:	02a77733          	remu	a4,a4,a0
20001d1c:	026686b3          	mul	a3,a3,t1
20001d20:	01071593          	slli	a1,a4,0x10
20001d24:	0107d713          	srli	a4,a5,0x10
20001d28:	00b76733          	or	a4,a4,a1
20001d2c:	02d77063          	bgeu	a4,a3,20001d4c <__umoddi3+0xa4>
20001d30:	00e80733          	add	a4,a6,a4
20001d34:	010735b3          	sltu	a1,a4,a6
20001d38:	00d73633          	sltu	a2,a4,a3
20001d3c:	0015b593          	seqz	a1,a1
20001d40:	00b67633          	and	a2,a2,a1
20001d44:	03060633          	mul	a2,a2,a6
20001d48:	00e60733          	add	a4,a2,a4
20001d4c:	40d70733          	sub	a4,a4,a3
20001d50:	02a756b3          	divu	a3,a4,a0
20001d54:	02a77733          	remu	a4,a4,a0
20001d58:	026686b3          	mul	a3,a3,t1
20001d5c:	01079513          	slli	a0,a5,0x10
20001d60:	01071713          	slli	a4,a4,0x10
20001d64:	01055513          	srli	a0,a0,0x10
20001d68:	00e56533          	or	a0,a0,a4
20001d6c:	02d57063          	bgeu	a0,a3,20001d8c <__umoddi3+0xe4>
20001d70:	00a80533          	add	a0,a6,a0
20001d74:	01053733          	sltu	a4,a0,a6
20001d78:	00d537b3          	sltu	a5,a0,a3
20001d7c:	00173713          	seqz	a4,a4
20001d80:	00e7f7b3          	and	a5,a5,a4
20001d84:	030787b3          	mul	a5,a5,a6
20001d88:	00a78533          	add	a0,a5,a0
20001d8c:	40d50533          	sub	a0,a0,a3
20001d90:	01155533          	srl	a0,a0,a7
20001d94:	00000593          	li	a1,0
20001d98:	00008067          	ret
20001d9c:	01000337          	lui	t1,0x1000
20001da0:	01800893          	li	a7,24
20001da4:	f2667ae3          	bgeu	a2,t1,20001cd8 <__umoddi3+0x30>
20001da8:	01000893          	li	a7,16
20001dac:	f2dff06f          	j	20001cd8 <__umoddi3+0x30>
20001db0:	00000713          	li	a4,0
20001db4:	00060c63          	beqz	a2,20001dcc <__umoddi3+0x124>
20001db8:	00010737          	lui	a4,0x10
20001dbc:	08e67463          	bgeu	a2,a4,20001e44 <__umoddi3+0x19c>
20001dc0:	10063713          	sltiu	a4,a2,256
20001dc4:	00173713          	seqz	a4,a4
20001dc8:	00371713          	slli	a4,a4,0x3
20001dcc:	00e658b3          	srl	a7,a2,a4
20001dd0:	011686b3          	add	a3,a3,a7
20001dd4:	0006c683          	lbu	a3,0(a3)
20001dd8:	00e686b3          	add	a3,a3,a4
20001ddc:	02000713          	li	a4,32
20001de0:	40d708b3          	sub	a7,a4,a3
20001de4:	06e69a63          	bne	a3,a4,20001e58 <__umoddi3+0x1b0>
20001de8:	40c586b3          	sub	a3,a1,a2
20001dec:	01085593          	srli	a1,a6,0x10
20001df0:	02b6d633          	divu	a2,a3,a1
20001df4:	01081313          	slli	t1,a6,0x10
20001df8:	01035313          	srli	t1,t1,0x10
20001dfc:	0107d713          	srli	a4,a5,0x10
20001e00:	02b6f6b3          	remu	a3,a3,a1
20001e04:	02660633          	mul	a2,a2,t1
20001e08:	01069693          	slli	a3,a3,0x10
20001e0c:	00d76733          	or	a4,a4,a3
20001e10:	02c77063          	bgeu	a4,a2,20001e30 <__umoddi3+0x188>
20001e14:	00e80733          	add	a4,a6,a4
20001e18:	01073533          	sltu	a0,a4,a6
20001e1c:	00c736b3          	sltu	a3,a4,a2
20001e20:	00153513          	seqz	a0,a0
20001e24:	00a6f6b3          	and	a3,a3,a0
20001e28:	030686b3          	mul	a3,a3,a6
20001e2c:	00e68733          	add	a4,a3,a4
20001e30:	40c70733          	sub	a4,a4,a2
20001e34:	02b756b3          	divu	a3,a4,a1
20001e38:	02b77733          	remu	a4,a4,a1
20001e3c:	026686b3          	mul	a3,a3,t1
20001e40:	f1dff06f          	j	20001d5c <__umoddi3+0xb4>
20001e44:	010008b7          	lui	a7,0x1000
20001e48:	01800713          	li	a4,24
20001e4c:	f91670e3          	bgeu	a2,a7,20001dcc <__umoddi3+0x124>
20001e50:	01000713          	li	a4,16
20001e54:	f79ff06f          	j	20001dcc <__umoddi3+0x124>
20001e58:	01161833          	sll	a6,a2,a7
20001e5c:	00d5d733          	srl	a4,a1,a3
20001e60:	011517b3          	sll	a5,a0,a7
20001e64:	011595b3          	sll	a1,a1,a7
20001e68:	00d556b3          	srl	a3,a0,a3
20001e6c:	01085513          	srli	a0,a6,0x10
20001e70:	00b6e6b3          	or	a3,a3,a1
20001e74:	02a755b3          	divu	a1,a4,a0
20001e78:	01081e13          	slli	t3,a6,0x10
20001e7c:	010e5e13          	srli	t3,t3,0x10
20001e80:	02a77733          	remu	a4,a4,a0
20001e84:	03c585b3          	mul	a1,a1,t3
20001e88:	01071613          	slli	a2,a4,0x10
20001e8c:	0106d713          	srli	a4,a3,0x10
20001e90:	00c76733          	or	a4,a4,a2
20001e94:	02b77063          	bgeu	a4,a1,20001eb4 <__umoddi3+0x20c>
20001e98:	00e80733          	add	a4,a6,a4
20001e9c:	01073333          	sltu	t1,a4,a6
20001ea0:	00b73633          	sltu	a2,a4,a1
20001ea4:	00133313          	seqz	t1,t1
20001ea8:	00667633          	and	a2,a2,t1
20001eac:	03060633          	mul	a2,a2,a6
20001eb0:	00e60733          	add	a4,a2,a4
20001eb4:	40b70733          	sub	a4,a4,a1
20001eb8:	02a75633          	divu	a2,a4,a0
20001ebc:	01069693          	slli	a3,a3,0x10
20001ec0:	0106d693          	srli	a3,a3,0x10
20001ec4:	02a77733          	remu	a4,a4,a0
20001ec8:	03c60633          	mul	a2,a2,t3
20001ecc:	01071713          	slli	a4,a4,0x10
20001ed0:	00e6e6b3          	or	a3,a3,a4
20001ed4:	02c6f063          	bgeu	a3,a2,20001ef4 <__umoddi3+0x24c>
20001ed8:	00d806b3          	add	a3,a6,a3
20001edc:	0106b5b3          	sltu	a1,a3,a6
20001ee0:	00c6b733          	sltu	a4,a3,a2
20001ee4:	0015b593          	seqz	a1,a1
20001ee8:	00b77733          	and	a4,a4,a1
20001eec:	03070733          	mul	a4,a4,a6
20001ef0:	00d706b3          	add	a3,a4,a3
20001ef4:	40c686b3          	sub	a3,a3,a2
20001ef8:	ef5ff06f          	j	20001dec <__umoddi3+0x144>
20001efc:	1ad5e663          	bltu	a1,a3,200020a8 <__umoddi3+0x400>
20001f00:	00010837          	lui	a6,0x10
20001f04:	0506fc63          	bgeu	a3,a6,20001f5c <__umoddi3+0x2b4>
20001f08:	1006b893          	sltiu	a7,a3,256
20001f0c:	0018b893          	seqz	a7,a7
20001f10:	00389893          	slli	a7,a7,0x3
20001f14:	20005837          	lui	a6,0x20005
20001f18:	0116d333          	srl	t1,a3,a7
20001f1c:	ac880813          	addi	a6,a6,-1336 # 20004ac8 <__clz_tab>
20001f20:	00680833          	add	a6,a6,t1
20001f24:	00084803          	lbu	a6,0(a6)
20001f28:	01180833          	add	a6,a6,a7
20001f2c:	02000893          	li	a7,32
20001f30:	05181063          	bne	a6,a7,20001f70 <__umoddi3+0x2c8>
20001f34:	00c57463          	bgeu	a0,a2,20001f3c <__umoddi3+0x294>
20001f38:	00b6fc63          	bgeu	a3,a1,20001f50 <__umoddi3+0x2a8>
20001f3c:	40c50733          	sub	a4,a0,a2
20001f40:	00070793          	mv	a5,a4
20001f44:	40d586b3          	sub	a3,a1,a3
20001f48:	00e53733          	sltu	a4,a0,a4
20001f4c:	40e68733          	sub	a4,a3,a4
20001f50:	00078513          	mv	a0,a5
20001f54:	00070593          	mv	a1,a4
20001f58:	00008067          	ret
20001f5c:	01000837          	lui	a6,0x1000
20001f60:	01800893          	li	a7,24
20001f64:	fb06f8e3          	bgeu	a3,a6,20001f14 <__umoddi3+0x26c>
20001f68:	01000893          	li	a7,16
20001f6c:	fa9ff06f          	j	20001f14 <__umoddi3+0x26c>
20001f70:	410888b3          	sub	a7,a7,a6
20001f74:	011696b3          	sll	a3,a3,a7
20001f78:	01065333          	srl	t1,a2,a6
20001f7c:	00d36333          	or	t1,t1,a3
20001f80:	0105d733          	srl	a4,a1,a6
20001f84:	01035e93          	srli	t4,t1,0x10
20001f88:	03d756b3          	divu	a3,a4,t4
20001f8c:	01031e13          	slli	t3,t1,0x10
20001f90:	010e5e13          	srli	t3,t3,0x10
20001f94:	011597b3          	sll	a5,a1,a7
20001f98:	010555b3          	srl	a1,a0,a6
20001f9c:	00f5e5b3          	or	a1,a1,a5
20001fa0:	0105d793          	srli	a5,a1,0x10
20001fa4:	01161633          	sll	a2,a2,a7
20001fa8:	01151533          	sll	a0,a0,a7
20001fac:	03d77733          	remu	a4,a4,t4
20001fb0:	02de0f33          	mul	t5,t3,a3
20001fb4:	01071713          	slli	a4,a4,0x10
20001fb8:	00e7e7b3          	or	a5,a5,a4
20001fbc:	01e7fa63          	bgeu	a5,t5,20001fd0 <__umoddi3+0x328>
20001fc0:	00f307b3          	add	a5,t1,a5
20001fc4:	01e7f463          	bgeu	a5,t5,20001fcc <__umoddi3+0x324>
20001fc8:	0e67f263          	bgeu	a5,t1,200020ac <__umoddi3+0x404>
20001fcc:	fff68693          	addi	a3,a3,-1
20001fd0:	41e787b3          	sub	a5,a5,t5
20001fd4:	03d7d733          	divu	a4,a5,t4
20001fd8:	01059593          	slli	a1,a1,0x10
20001fdc:	0105d593          	srli	a1,a1,0x10
20001fe0:	03d7f7b3          	remu	a5,a5,t4
20001fe4:	02ee0e33          	mul	t3,t3,a4
20001fe8:	01079793          	slli	a5,a5,0x10
20001fec:	00f5e5b3          	or	a1,a1,a5
20001ff0:	01c5fa63          	bgeu	a1,t3,20002004 <__umoddi3+0x35c>
20001ff4:	00b305b3          	add	a1,t1,a1
20001ff8:	01c5f463          	bgeu	a1,t3,20002000 <__umoddi3+0x358>
20001ffc:	0a65fe63          	bgeu	a1,t1,200020b8 <__umoddi3+0x410>
20002000:	fff70713          	addi	a4,a4,-1 # ffff <_start-0x1fff0001>
20002004:	01069693          	slli	a3,a3,0x10
20002008:	00e6e6b3          	or	a3,a3,a4
2000200c:	41c585b3          	sub	a1,a1,t3
20002010:	01071713          	slli	a4,a4,0x10
20002014:	01061e13          	slli	t3,a2,0x10
20002018:	01065793          	srli	a5,a2,0x10
2000201c:	01075713          	srli	a4,a4,0x10
20002020:	0106d693          	srli	a3,a3,0x10
20002024:	010e5e13          	srli	t3,t3,0x10
20002028:	03c70eb3          	mul	t4,a4,t3
2000202c:	03c68e33          	mul	t3,a3,t3
20002030:	02f70733          	mul	a4,a4,a5
20002034:	02f686b3          	mul	a3,a3,a5
20002038:	01c707b3          	add	a5,a4,t3
2000203c:	010ed713          	srli	a4,t4,0x10
20002040:	00f70733          	add	a4,a4,a5
20002044:	01c77663          	bgeu	a4,t3,20002050 <__umoddi3+0x3a8>
20002048:	000107b7          	lui	a5,0x10
2000204c:	00f686b3          	add	a3,a3,a5
20002050:	01075793          	srli	a5,a4,0x10
20002054:	010e9e93          	slli	t4,t4,0x10
20002058:	01071713          	slli	a4,a4,0x10
2000205c:	010ede93          	srli	t4,t4,0x10
20002060:	00d787b3          	add	a5,a5,a3
20002064:	01d70733          	add	a4,a4,t4
20002068:	00f5e663          	bltu	a1,a5,20002074 <__umoddi3+0x3cc>
2000206c:	00e57e63          	bgeu	a0,a4,20002088 <__umoddi3+0x3e0>
20002070:	00f59c63          	bne	a1,a5,20002088 <__umoddi3+0x3e0>
20002074:	40c70633          	sub	a2,a4,a2
20002078:	00c736b3          	sltu	a3,a4,a2
2000207c:	006686b3          	add	a3,a3,t1
20002080:	00060713          	mv	a4,a2
20002084:	40d787b3          	sub	a5,a5,a3
20002088:	40e50733          	sub	a4,a0,a4
2000208c:	00e53533          	sltu	a0,a0,a4
20002090:	40f585b3          	sub	a1,a1,a5
20002094:	40a585b3          	sub	a1,a1,a0
20002098:	01059833          	sll	a6,a1,a6
2000209c:	01175733          	srl	a4,a4,a7
200020a0:	00e86533          	or	a0,a6,a4
200020a4:	0115d5b3          	srl	a1,a1,a7
200020a8:	00008067          	ret
200020ac:	ffe68693          	addi	a3,a3,-2
200020b0:	006787b3          	add	a5,a5,t1
200020b4:	f1dff06f          	j	20001fd0 <__umoddi3+0x328>
200020b8:	ffe70713          	addi	a4,a4,-2
200020bc:	006585b3          	add	a1,a1,t1
200020c0:	f45ff06f          	j	20002004 <__umoddi3+0x35c>

200020c4 <_iprintf_r>:
200020c4:	fc010113          	addi	sp,sp,-64
200020c8:	02c12423          	sw	a2,40(sp)
200020cc:	02d12623          	sw	a3,44(sp)
200020d0:	02e12823          	sw	a4,48(sp)
200020d4:	02f12a23          	sw	a5,52(sp)
200020d8:	03012c23          	sw	a6,56(sp)
200020dc:	03112e23          	sw	a7,60(sp)
200020e0:	00058613          	mv	a2,a1
200020e4:	00852583          	lw	a1,8(a0)
200020e8:	02810693          	addi	a3,sp,40
200020ec:	00112e23          	sw	ra,28(sp)
200020f0:	00d12623          	sw	a3,12(sp)
200020f4:	219000ef          	jal	20002b0c <_vfiprintf_r>
200020f8:	01c12083          	lw	ra,28(sp)
200020fc:	04010113          	addi	sp,sp,64
20002100:	00008067          	ret

20002104 <iprintf>:
20002104:	fc010113          	addi	sp,sp,-64
20002108:	02f12a23          	sw	a5,52(sp)
2000210c:	200057b7          	lui	a5,0x20005
20002110:	cf07a783          	lw	a5,-784(a5) # 20004cf0 <_impure_ptr>
20002114:	02c12423          	sw	a2,40(sp)
20002118:	02d12623          	sw	a3,44(sp)
2000211c:	02b12223          	sw	a1,36(sp)
20002120:	02e12823          	sw	a4,48(sp)
20002124:	03012c23          	sw	a6,56(sp)
20002128:	03112e23          	sw	a7,60(sp)
2000212c:	0087a583          	lw	a1,8(a5)
20002130:	02410693          	addi	a3,sp,36
20002134:	00050613          	mv	a2,a0
20002138:	00078513          	mv	a0,a5
2000213c:	00112e23          	sw	ra,28(sp)
20002140:	00d12623          	sw	a3,12(sp)
20002144:	1c9000ef          	jal	20002b0c <_vfiprintf_r>
20002148:	01c12083          	lw	ra,28(sp)
2000214c:	04010113          	addi	sp,sp,64
20002150:	00008067          	ret

20002154 <_putchar_r>:
20002154:	00852603          	lw	a2,8(a0)
20002158:	6350106f          	j	20003f8c <_putc_r>

2000215c <putchar>:
2000215c:	200057b7          	lui	a5,0x20005
20002160:	00050593          	mv	a1,a0
20002164:	cf07a503          	lw	a0,-784(a5) # 20004cf0 <_impure_ptr>
20002168:	00852603          	lw	a2,8(a0)
2000216c:	6210106f          	j	20003f8c <_putc_r>

20002170 <_puts_r>:
20002170:	02052783          	lw	a5,32(a0)
20002174:	fe010113          	addi	sp,sp,-32
20002178:	00812c23          	sw	s0,24(sp)
2000217c:	00912a23          	sw	s1,20(sp)
20002180:	01212823          	sw	s2,16(sp)
20002184:	00112e23          	sw	ra,28(sp)
20002188:	01312623          	sw	s3,12(sp)
2000218c:	00852403          	lw	s0,8(a0)
20002190:	00050493          	mv	s1,a0
20002194:	00058913          	mv	s2,a1
20002198:	00079463          	bnez	a5,200021a0 <_puts_r+0x30>
2000219c:	730010ef          	jal	200038cc <__sinit>
200021a0:	00c45783          	lhu	a5,12(s0)
200021a4:	0087f793          	andi	a5,a5,8
200021a8:	00078663          	beqz	a5,200021b4 <_puts_r+0x44>
200021ac:	01042783          	lw	a5,16(s0)
200021b0:	0a079463          	bnez	a5,20002258 <_puts_r+0xe8>
200021b4:	00040593          	mv	a1,s0
200021b8:	00048513          	mv	a0,s1
200021bc:	3d0000ef          	jal	2000258c <__swsetup_r>
200021c0:	08050c63          	beqz	a0,20002258 <_puts_r+0xe8>
200021c4:	fff00513          	li	a0,-1
200021c8:	01c12083          	lw	ra,28(sp)
200021cc:	01812403          	lw	s0,24(sp)
200021d0:	01412483          	lw	s1,20(sp)
200021d4:	01012903          	lw	s2,16(sp)
200021d8:	00c12983          	lw	s3,12(sp)
200021dc:	02010113          	addi	sp,sp,32
200021e0:	00008067          	ret
200021e4:	0007da63          	bgez	a5,200021f8 <_puts_r+0x88>
200021e8:	01842703          	lw	a4,24(s0)
200021ec:	04e7cc63          	blt	a5,a4,20002244 <_puts_r+0xd4>
200021f0:	ff658793          	addi	a5,a1,-10
200021f4:	04078863          	beqz	a5,20002244 <_puts_r+0xd4>
200021f8:	00042783          	lw	a5,0(s0)
200021fc:	00178713          	addi	a4,a5,1
20002200:	00e42023          	sw	a4,0(s0)
20002204:	00b78023          	sb	a1,0(a5)
20002208:	00190913          	addi	s2,s2,1
2000220c:	00842783          	lw	a5,8(s0)
20002210:	00094583          	lbu	a1,0(s2)
20002214:	fff78793          	addi	a5,a5,-1
20002218:	00f42423          	sw	a5,8(s0)
2000221c:	fc0594e3          	bnez	a1,200021e4 <_puts_r+0x74>
20002220:	0407d063          	bgez	a5,20002260 <_puts_r+0xf0>
20002224:	00040613          	mv	a2,s0
20002228:	00a00593          	li	a1,10
2000222c:	00048513          	mv	a0,s1
20002230:	24c000ef          	jal	2000247c <__swbuf_r>
20002234:	fff00793          	li	a5,-1
20002238:	f8f506e3          	beq	a0,a5,200021c4 <_puts_r+0x54>
2000223c:	00a00513          	li	a0,10
20002240:	f89ff06f          	j	200021c8 <_puts_r+0x58>
20002244:	00040613          	mv	a2,s0
20002248:	00048513          	mv	a0,s1
2000224c:	230000ef          	jal	2000247c <__swbuf_r>
20002250:	fb351ce3          	bne	a0,s3,20002208 <_puts_r+0x98>
20002254:	f71ff06f          	j	200021c4 <_puts_r+0x54>
20002258:	fff00993          	li	s3,-1
2000225c:	fb1ff06f          	j	2000220c <_puts_r+0x9c>
20002260:	00042783          	lw	a5,0(s0)
20002264:	00178713          	addi	a4,a5,1
20002268:	00e42023          	sw	a4,0(s0)
2000226c:	00a00713          	li	a4,10
20002270:	00e78023          	sb	a4,0(a5)
20002274:	fc9ff06f          	j	2000223c <_puts_r+0xcc>

20002278 <puts>:
20002278:	200057b7          	lui	a5,0x20005
2000227c:	00050593          	mv	a1,a0
20002280:	cf07a503          	lw	a0,-784(a5) # 20004cf0 <_impure_ptr>
20002284:	eedff06f          	j	20002170 <_puts_r>

20002288 <setvbuf>:
20002288:	fd010113          	addi	sp,sp,-48
2000228c:	200057b7          	lui	a5,0x20005
20002290:	01312e23          	sw	s3,28(sp)
20002294:	cf07a983          	lw	s3,-784(a5) # 20004cf0 <_impure_ptr>
20002298:	02812423          	sw	s0,40(sp)
2000229c:	02912223          	sw	s1,36(sp)
200022a0:	03212023          	sw	s2,32(sp)
200022a4:	01412c23          	sw	s4,24(sp)
200022a8:	02112623          	sw	ra,44(sp)
200022ac:	01512a23          	sw	s5,20(sp)
200022b0:	00050413          	mv	s0,a0
200022b4:	00058913          	mv	s2,a1
200022b8:	00060a13          	mv	s4,a2
200022bc:	00068493          	mv	s1,a3
200022c0:	00098a63          	beqz	s3,200022d4 <setvbuf+0x4c>
200022c4:	0209a783          	lw	a5,32(s3)
200022c8:	00079663          	bnez	a5,200022d4 <setvbuf+0x4c>
200022cc:	00098513          	mv	a0,s3
200022d0:	5fc010ef          	jal	200038cc <__sinit>
200022d4:	00200793          	li	a5,2
200022d8:	00fa0863          	beq	s4,a5,200022e8 <setvbuf+0x60>
200022dc:	002a3793          	sltiu	a5,s4,2
200022e0:	18078a63          	beqz	a5,20002474 <setvbuf+0x1ec>
200022e4:	1804c863          	bltz	s1,20002474 <setvbuf+0x1ec>
200022e8:	00040593          	mv	a1,s0
200022ec:	00098513          	mv	a0,s3
200022f0:	2b8010ef          	jal	200035a8 <_fflush_r>
200022f4:	03442583          	lw	a1,52(s0)
200022f8:	00058c63          	beqz	a1,20002310 <setvbuf+0x88>
200022fc:	04440793          	addi	a5,s0,68
20002300:	00f58663          	beq	a1,a5,2000230c <setvbuf+0x84>
20002304:	00098513          	mv	a0,s3
20002308:	3ac000ef          	jal	200026b4 <_free_r>
2000230c:	02042a23          	sw	zero,52(s0)
20002310:	00c45783          	lhu	a5,12(s0)
20002314:	00042c23          	sw	zero,24(s0)
20002318:	00042223          	sw	zero,4(s0)
2000231c:	0807f793          	andi	a5,a5,128
20002320:	00078863          	beqz	a5,20002330 <setvbuf+0xa8>
20002324:	01042583          	lw	a1,16(s0)
20002328:	00098513          	mv	a0,s3
2000232c:	388000ef          	jal	200026b4 <_free_r>
20002330:	00c45783          	lhu	a5,12(s0)
20002334:	fffff737          	lui	a4,0xfffff
20002338:	35c70713          	addi	a4,a4,860 # fffff35c <__stack_top+0xdfff98e8>
2000233c:	00e7f7b3          	and	a5,a5,a4
20002340:	00f41623          	sh	a5,12(s0)
20002344:	00200793          	li	a5,2
20002348:	10fa0a63          	beq	s4,a5,2000245c <setvbuf+0x1d4>
2000234c:	00c10693          	addi	a3,sp,12
20002350:	00810613          	addi	a2,sp,8
20002354:	00040593          	mv	a1,s0
20002358:	00098513          	mv	a0,s3
2000235c:	2d9010ef          	jal	20003e34 <__swhatbuf_r>
20002360:	00c45783          	lhu	a5,12(s0)
20002364:	00a7e7b3          	or	a5,a5,a0
20002368:	00f41623          	sh	a5,12(s0)
2000236c:	06049863          	bnez	s1,200023dc <setvbuf+0x154>
20002370:	00812483          	lw	s1,8(sp)
20002374:	00048513          	mv	a0,s1
20002378:	438000ef          	jal	200027b0 <malloc>
2000237c:	00050913          	mv	s2,a0
20002380:	00048a93          	mv	s5,s1
20002384:	0c051263          	bnez	a0,20002448 <setvbuf+0x1c0>
20002388:	00812a83          	lw	s5,8(sp)
2000238c:	0a9a9663          	bne	s5,s1,20002438 <setvbuf+0x1b0>
20002390:	fff00513          	li	a0,-1
20002394:	00c45783          	lhu	a5,12(s0)
20002398:	00042423          	sw	zero,8(s0)
2000239c:	0027e793          	ori	a5,a5,2
200023a0:	00f41623          	sh	a5,12(s0)
200023a4:	04740793          	addi	a5,s0,71
200023a8:	00f42023          	sw	a5,0(s0)
200023ac:	00f42823          	sw	a5,16(s0)
200023b0:	00100793          	li	a5,1
200023b4:	00f42a23          	sw	a5,20(s0)
200023b8:	02c12083          	lw	ra,44(sp)
200023bc:	02812403          	lw	s0,40(sp)
200023c0:	02412483          	lw	s1,36(sp)
200023c4:	02012903          	lw	s2,32(sp)
200023c8:	01c12983          	lw	s3,28(sp)
200023cc:	01812a03          	lw	s4,24(sp)
200023d0:	01412a83          	lw	s5,20(sp)
200023d4:	03010113          	addi	sp,sp,48
200023d8:	00008067          	ret
200023dc:	f8090ce3          	beqz	s2,20002374 <setvbuf+0xec>
200023e0:	0209a783          	lw	a5,32(s3)
200023e4:	00079663          	bnez	a5,200023f0 <setvbuf+0x168>
200023e8:	00098513          	mv	a0,s3
200023ec:	4e0010ef          	jal	200038cc <__sinit>
200023f0:	00100793          	li	a5,1
200023f4:	00fa1863          	bne	s4,a5,20002404 <setvbuf+0x17c>
200023f8:	00c45783          	lhu	a5,12(s0)
200023fc:	0147e7b3          	or	a5,a5,s4
20002400:	00f41623          	sh	a5,12(s0)
20002404:	00c41783          	lh	a5,12(s0)
20002408:	01242023          	sw	s2,0(s0)
2000240c:	01242823          	sw	s2,16(s0)
20002410:	00942a23          	sw	s1,20(s0)
20002414:	0087f713          	andi	a4,a5,8
20002418:	04070a63          	beqz	a4,2000246c <setvbuf+0x1e4>
2000241c:	0017f793          	andi	a5,a5,1
20002420:	04078263          	beqz	a5,20002464 <setvbuf+0x1dc>
20002424:	409004b3          	neg	s1,s1
20002428:	00042423          	sw	zero,8(s0)
2000242c:	00942c23          	sw	s1,24(s0)
20002430:	00000513          	li	a0,0
20002434:	f85ff06f          	j	200023b8 <setvbuf+0x130>
20002438:	000a8513          	mv	a0,s5
2000243c:	374000ef          	jal	200027b0 <malloc>
20002440:	00050913          	mv	s2,a0
20002444:	f40506e3          	beqz	a0,20002390 <setvbuf+0x108>
20002448:	00c45783          	lhu	a5,12(s0)
2000244c:	000a8493          	mv	s1,s5
20002450:	0807e793          	ori	a5,a5,128
20002454:	00f41623          	sh	a5,12(s0)
20002458:	f89ff06f          	j	200023e0 <setvbuf+0x158>
2000245c:	00000513          	li	a0,0
20002460:	f35ff06f          	j	20002394 <setvbuf+0x10c>
20002464:	00942423          	sw	s1,8(s0)
20002468:	fc9ff06f          	j	20002430 <setvbuf+0x1a8>
2000246c:	00042423          	sw	zero,8(s0)
20002470:	fc1ff06f          	j	20002430 <setvbuf+0x1a8>
20002474:	fff00513          	li	a0,-1
20002478:	f41ff06f          	j	200023b8 <setvbuf+0x130>

2000247c <__swbuf_r>:
2000247c:	fe010113          	addi	sp,sp,-32
20002480:	00812c23          	sw	s0,24(sp)
20002484:	00912a23          	sw	s1,20(sp)
20002488:	01312623          	sw	s3,12(sp)
2000248c:	00112e23          	sw	ra,28(sp)
20002490:	01212823          	sw	s2,16(sp)
20002494:	00050493          	mv	s1,a0
20002498:	00058993          	mv	s3,a1
2000249c:	00060413          	mv	s0,a2
200024a0:	00050863          	beqz	a0,200024b0 <__swbuf_r+0x34>
200024a4:	02052783          	lw	a5,32(a0)
200024a8:	00079463          	bnez	a5,200024b0 <__swbuf_r+0x34>
200024ac:	420010ef          	jal	200038cc <__sinit>
200024b0:	01842783          	lw	a5,24(s0)
200024b4:	00f42423          	sw	a5,8(s0)
200024b8:	00c45783          	lhu	a5,12(s0)
200024bc:	0087f793          	andi	a5,a5,8
200024c0:	00078663          	beqz	a5,200024cc <__swbuf_r+0x50>
200024c4:	01042783          	lw	a5,16(s0)
200024c8:	02079c63          	bnez	a5,20002500 <__swbuf_r+0x84>
200024cc:	00040593          	mv	a1,s0
200024d0:	00048513          	mv	a0,s1
200024d4:	0b8000ef          	jal	2000258c <__swsetup_r>
200024d8:	02050463          	beqz	a0,20002500 <__swbuf_r+0x84>
200024dc:	fff00913          	li	s2,-1
200024e0:	01c12083          	lw	ra,28(sp)
200024e4:	01812403          	lw	s0,24(sp)
200024e8:	01412483          	lw	s1,20(sp)
200024ec:	00c12983          	lw	s3,12(sp)
200024f0:	00090513          	mv	a0,s2
200024f4:	01012903          	lw	s2,16(sp)
200024f8:	02010113          	addi	sp,sp,32
200024fc:	00008067          	ret
20002500:	01042783          	lw	a5,16(s0)
20002504:	00042503          	lw	a0,0(s0)
20002508:	40f50533          	sub	a0,a0,a5
2000250c:	01442783          	lw	a5,20(s0)
20002510:	00f54a63          	blt	a0,a5,20002524 <__swbuf_r+0xa8>
20002514:	00040593          	mv	a1,s0
20002518:	00048513          	mv	a0,s1
2000251c:	08c010ef          	jal	200035a8 <_fflush_r>
20002520:	fa051ee3          	bnez	a0,200024dc <__swbuf_r+0x60>
20002524:	00842783          	lw	a5,8(s0)
20002528:	00150513          	addi	a0,a0,1
2000252c:	0ff9f913          	zext.b	s2,s3
20002530:	fff78793          	addi	a5,a5,-1
20002534:	00f42423          	sw	a5,8(s0)
20002538:	00042783          	lw	a5,0(s0)
2000253c:	00178713          	addi	a4,a5,1
20002540:	00e42023          	sw	a4,0(s0)
20002544:	01378023          	sb	s3,0(a5)
20002548:	01442783          	lw	a5,20(s0)
2000254c:	00a78c63          	beq	a5,a0,20002564 <__swbuf_r+0xe8>
20002550:	00c45783          	lhu	a5,12(s0)
20002554:	0017f793          	andi	a5,a5,1
20002558:	f80784e3          	beqz	a5,200024e0 <__swbuf_r+0x64>
2000255c:	ff690793          	addi	a5,s2,-10
20002560:	f80790e3          	bnez	a5,200024e0 <__swbuf_r+0x64>
20002564:	00040593          	mv	a1,s0
20002568:	00048513          	mv	a0,s1
2000256c:	03c010ef          	jal	200035a8 <_fflush_r>
20002570:	f60508e3          	beqz	a0,200024e0 <__swbuf_r+0x64>
20002574:	f69ff06f          	j	200024dc <__swbuf_r+0x60>

20002578 <__swbuf>:
20002578:	200057b7          	lui	a5,0x20005
2000257c:	00058613          	mv	a2,a1
20002580:	00050593          	mv	a1,a0
20002584:	cf07a503          	lw	a0,-784(a5) # 20004cf0 <_impure_ptr>
20002588:	ef5ff06f          	j	2000247c <__swbuf_r>

2000258c <__swsetup_r>:
2000258c:	ff010113          	addi	sp,sp,-16
20002590:	200057b7          	lui	a5,0x20005
20002594:	00912223          	sw	s1,4(sp)
20002598:	00050493          	mv	s1,a0
2000259c:	cf07a503          	lw	a0,-784(a5) # 20004cf0 <_impure_ptr>
200025a0:	00812423          	sw	s0,8(sp)
200025a4:	00112623          	sw	ra,12(sp)
200025a8:	00058413          	mv	s0,a1
200025ac:	00050863          	beqz	a0,200025bc <__swsetup_r+0x30>
200025b0:	02052783          	lw	a5,32(a0)
200025b4:	00079463          	bnez	a5,200025bc <__swsetup_r+0x30>
200025b8:	314010ef          	jal	200038cc <__sinit>
200025bc:	00c41783          	lh	a5,12(s0)
200025c0:	0087f713          	andi	a4,a5,8
200025c4:	06071263          	bnez	a4,20002628 <__swsetup_r+0x9c>
200025c8:	0107f713          	andi	a4,a5,16
200025cc:	00071e63          	bnez	a4,200025e8 <__swsetup_r+0x5c>
200025d0:	00900713          	li	a4,9
200025d4:	00e4a023          	sw	a4,0(s1)
200025d8:	0407e793          	ori	a5,a5,64
200025dc:	00f41623          	sh	a5,12(s0)
200025e0:	fff00513          	li	a0,-1
200025e4:	0980006f          	j	2000267c <__swsetup_r+0xf0>
200025e8:	0047f713          	andi	a4,a5,4
200025ec:	02070a63          	beqz	a4,20002620 <__swsetup_r+0x94>
200025f0:	03442583          	lw	a1,52(s0)
200025f4:	00058c63          	beqz	a1,2000260c <__swsetup_r+0x80>
200025f8:	04440793          	addi	a5,s0,68
200025fc:	00f58663          	beq	a1,a5,20002608 <__swsetup_r+0x7c>
20002600:	00048513          	mv	a0,s1
20002604:	0b0000ef          	jal	200026b4 <_free_r>
20002608:	02042a23          	sw	zero,52(s0)
2000260c:	00c45783          	lhu	a5,12(s0)
20002610:	01042703          	lw	a4,16(s0)
20002614:	00042223          	sw	zero,4(s0)
20002618:	fdb7f793          	andi	a5,a5,-37
2000261c:	00e42023          	sw	a4,0(s0)
20002620:	0087e793          	ori	a5,a5,8
20002624:	00f41623          	sh	a5,12(s0)
20002628:	01042783          	lw	a5,16(s0)
2000262c:	02079063          	bnez	a5,2000264c <__swsetup_r+0xc0>
20002630:	00c42783          	lw	a5,12(s0)
20002634:	20000713          	li	a4,512
20002638:	2807f793          	andi	a5,a5,640
2000263c:	00e78863          	beq	a5,a4,2000264c <__swsetup_r+0xc0>
20002640:	00040593          	mv	a1,s0
20002644:	00048513          	mv	a0,s1
20002648:	079010ef          	jal	20003ec0 <__smakebuf_r>
2000264c:	00c41783          	lh	a5,12(s0)
20002650:	0017f713          	andi	a4,a5,1
20002654:	02070e63          	beqz	a4,20002690 <__swsetup_r+0x104>
20002658:	01442703          	lw	a4,20(s0)
2000265c:	00042423          	sw	zero,8(s0)
20002660:	40e00733          	neg	a4,a4
20002664:	00e42c23          	sw	a4,24(s0)
20002668:	01042703          	lw	a4,16(s0)
2000266c:	00000513          	li	a0,0
20002670:	00071663          	bnez	a4,2000267c <__swsetup_r+0xf0>
20002674:	0807f713          	andi	a4,a5,128
20002678:	f60710e3          	bnez	a4,200025d8 <__swsetup_r+0x4c>
2000267c:	00c12083          	lw	ra,12(sp)
20002680:	00812403          	lw	s0,8(sp)
20002684:	00412483          	lw	s1,4(sp)
20002688:	01010113          	addi	sp,sp,16
2000268c:	00008067          	ret
20002690:	0027f713          	andi	a4,a5,2
20002694:	00000693          	li	a3,0
20002698:	00071463          	bnez	a4,200026a0 <__swsetup_r+0x114>
2000269c:	01442683          	lw	a3,20(s0)
200026a0:	00d42423          	sw	a3,8(s0)
200026a4:	fc5ff06f          	j	20002668 <__swsetup_r+0xdc>

200026a8 <__errno>:
200026a8:	200057b7          	lui	a5,0x20005
200026ac:	cf07a503          	lw	a0,-784(a5) # 20004cf0 <_impure_ptr>
200026b0:	00008067          	ret

200026b4 <_free_r>:
200026b4:	0e058c63          	beqz	a1,200027ac <_free_r+0xf8>
200026b8:	ffc5a783          	lw	a5,-4(a1)
200026bc:	fe010113          	addi	sp,sp,-32
200026c0:	00812c23          	sw	s0,24(sp)
200026c4:	00112e23          	sw	ra,28(sp)
200026c8:	ffc58413          	addi	s0,a1,-4
200026cc:	0007d463          	bgez	a5,200026d4 <_free_r+0x20>
200026d0:	00f40433          	add	s0,s0,a5
200026d4:	00a12623          	sw	a0,12(sp)
200026d8:	340000ef          	jal	20002a18 <__malloc_lock>
200026dc:	20005737          	lui	a4,0x20005
200026e0:	e6872783          	lw	a5,-408(a4) # 20004e68 <__malloc_free_list>
200026e4:	00c12503          	lw	a0,12(sp)
200026e8:	00079e63          	bnez	a5,20002704 <_free_r+0x50>
200026ec:	00042223          	sw	zero,4(s0)
200026f0:	e6872423          	sw	s0,-408(a4)
200026f4:	01812403          	lw	s0,24(sp)
200026f8:	01c12083          	lw	ra,28(sp)
200026fc:	02010113          	addi	sp,sp,32
20002700:	31c0006f          	j	20002a1c <__malloc_unlock>
20002704:	02f47463          	bgeu	s0,a5,2000272c <_free_r+0x78>
20002708:	00042603          	lw	a2,0(s0)
2000270c:	00c406b3          	add	a3,s0,a2
20002710:	00d79a63          	bne	a5,a3,20002724 <_free_r+0x70>
20002714:	0007a683          	lw	a3,0(a5)
20002718:	0047a783          	lw	a5,4(a5)
2000271c:	00c686b3          	add	a3,a3,a2
20002720:	00d42023          	sw	a3,0(s0)
20002724:	00f42223          	sw	a5,4(s0)
20002728:	fc9ff06f          	j	200026f0 <_free_r+0x3c>
2000272c:	00078713          	mv	a4,a5
20002730:	0047a783          	lw	a5,4(a5)
20002734:	00078463          	beqz	a5,2000273c <_free_r+0x88>
20002738:	fef47ae3          	bgeu	s0,a5,2000272c <_free_r+0x78>
2000273c:	00072683          	lw	a3,0(a4)
20002740:	00d70633          	add	a2,a4,a3
20002744:	02861863          	bne	a2,s0,20002774 <_free_r+0xc0>
20002748:	00042603          	lw	a2,0(s0)
2000274c:	00c686b3          	add	a3,a3,a2
20002750:	00d72023          	sw	a3,0(a4)
20002754:	00d70633          	add	a2,a4,a3
20002758:	f8c79ee3          	bne	a5,a2,200026f4 <_free_r+0x40>
2000275c:	0007a603          	lw	a2,0(a5)
20002760:	0047a783          	lw	a5,4(a5)
20002764:	00d606b3          	add	a3,a2,a3
20002768:	00d72023          	sw	a3,0(a4)
2000276c:	00f72223          	sw	a5,4(a4)
20002770:	f85ff06f          	j	200026f4 <_free_r+0x40>
20002774:	00c47863          	bgeu	s0,a2,20002784 <_free_r+0xd0>
20002778:	00c00793          	li	a5,12
2000277c:	00f52023          	sw	a5,0(a0)
20002780:	f75ff06f          	j	200026f4 <_free_r+0x40>
20002784:	00042603          	lw	a2,0(s0)
20002788:	00c406b3          	add	a3,s0,a2
2000278c:	00d79a63          	bne	a5,a3,200027a0 <_free_r+0xec>
20002790:	0007a683          	lw	a3,0(a5)
20002794:	0047a783          	lw	a5,4(a5)
20002798:	00c686b3          	add	a3,a3,a2
2000279c:	00d42023          	sw	a3,0(s0)
200027a0:	00f42223          	sw	a5,4(s0)
200027a4:	00872223          	sw	s0,4(a4)
200027a8:	f4dff06f          	j	200026f4 <_free_r+0x40>
200027ac:	00008067          	ret

200027b0 <malloc>:
200027b0:	200057b7          	lui	a5,0x20005
200027b4:	00050593          	mv	a1,a0
200027b8:	cf07a503          	lw	a0,-784(a5) # 20004cf0 <_impure_ptr>
200027bc:	09c0006f          	j	20002858 <_malloc_r>

200027c0 <free>:
200027c0:	200057b7          	lui	a5,0x20005
200027c4:	00050593          	mv	a1,a0
200027c8:	cf07a503          	lw	a0,-784(a5) # 20004cf0 <_impure_ptr>
200027cc:	ee9ff06f          	j	200026b4 <_free_r>

200027d0 <sbrk_aligned>:
200027d0:	ff010113          	addi	sp,sp,-16
200027d4:	00812423          	sw	s0,8(sp)
200027d8:	20005437          	lui	s0,0x20005
200027dc:	e6442783          	lw	a5,-412(s0) # 20004e64 <__malloc_sbrk_start>
200027e0:	00912223          	sw	s1,4(sp)
200027e4:	01212023          	sw	s2,0(sp)
200027e8:	00112623          	sw	ra,12(sp)
200027ec:	00050913          	mv	s2,a0
200027f0:	00058493          	mv	s1,a1
200027f4:	00079863          	bnez	a5,20002804 <sbrk_aligned+0x34>
200027f8:	00000593          	li	a1,0
200027fc:	49d010ef          	jal	20004498 <_sbrk_r>
20002800:	e6a42223          	sw	a0,-412(s0)
20002804:	00048593          	mv	a1,s1
20002808:	00090513          	mv	a0,s2
2000280c:	48d010ef          	jal	20004498 <_sbrk_r>
20002810:	fff00493          	li	s1,-1
20002814:	02951263          	bne	a0,s1,20002838 <sbrk_aligned+0x68>
20002818:	fff00413          	li	s0,-1
2000281c:	00c12083          	lw	ra,12(sp)
20002820:	00040513          	mv	a0,s0
20002824:	00812403          	lw	s0,8(sp)
20002828:	00412483          	lw	s1,4(sp)
2000282c:	00012903          	lw	s2,0(sp)
20002830:	01010113          	addi	sp,sp,16
20002834:	00008067          	ret
20002838:	00350413          	addi	s0,a0,3
2000283c:	ffc47413          	andi	s0,s0,-4
20002840:	fc850ee3          	beq	a0,s0,2000281c <sbrk_aligned+0x4c>
20002844:	40a405b3          	sub	a1,s0,a0
20002848:	00090513          	mv	a0,s2
2000284c:	44d010ef          	jal	20004498 <_sbrk_r>
20002850:	fc9516e3          	bne	a0,s1,2000281c <sbrk_aligned+0x4c>
20002854:	fc5ff06f          	j	20002818 <sbrk_aligned+0x48>

20002858 <_malloc_r>:
20002858:	fe010113          	addi	sp,sp,-32
2000285c:	00912a23          	sw	s1,20(sp)
20002860:	00358493          	addi	s1,a1,3
20002864:	ffc4f493          	andi	s1,s1,-4
20002868:	00112e23          	sw	ra,28(sp)
2000286c:	00812c23          	sw	s0,24(sp)
20002870:	01212823          	sw	s2,16(sp)
20002874:	01312623          	sw	s3,12(sp)
20002878:	01412423          	sw	s4,8(sp)
2000287c:	00848493          	addi	s1,s1,8
20002880:	00c00793          	li	a5,12
20002884:	00f4f463          	bgeu	s1,a5,2000288c <_malloc_r+0x34>
20002888:	00078493          	mv	s1,a5
2000288c:	0004c463          	bltz	s1,20002894 <_malloc_r+0x3c>
20002890:	02b4f863          	bgeu	s1,a1,200028c0 <_malloc_r+0x68>
20002894:	00c00793          	li	a5,12
20002898:	00f52023          	sw	a5,0(a0)
2000289c:	00000513          	li	a0,0
200028a0:	01c12083          	lw	ra,28(sp)
200028a4:	01812403          	lw	s0,24(sp)
200028a8:	01412483          	lw	s1,20(sp)
200028ac:	01012903          	lw	s2,16(sp)
200028b0:	00c12983          	lw	s3,12(sp)
200028b4:	00812a03          	lw	s4,8(sp)
200028b8:	02010113          	addi	sp,sp,32
200028bc:	00008067          	ret
200028c0:	00050913          	mv	s2,a0
200028c4:	200059b7          	lui	s3,0x20005
200028c8:	150000ef          	jal	20002a18 <__malloc_lock>
200028cc:	e689a783          	lw	a5,-408(s3) # 20004e68 <__malloc_free_list>
200028d0:	00078413          	mv	s0,a5
200028d4:	08041063          	bnez	s0,20002954 <_malloc_r+0xfc>
200028d8:	00048593          	mv	a1,s1
200028dc:	00090513          	mv	a0,s2
200028e0:	ef1ff0ef          	jal	200027d0 <sbrk_aligned>
200028e4:	fff00793          	li	a5,-1
200028e8:	00050413          	mv	s0,a0
200028ec:	12f51263          	bne	a0,a5,20002a10 <_malloc_r+0x1b8>
200028f0:	e689a403          	lw	s0,-408(s3)
200028f4:	00040793          	mv	a5,s0
200028f8:	0e079263          	bnez	a5,200029dc <_malloc_r+0x184>
200028fc:	10040063          	beqz	s0,200029fc <_malloc_r+0x1a4>
20002900:	00042a03          	lw	s4,0(s0)
20002904:	00000593          	li	a1,0
20002908:	00090513          	mv	a0,s2
2000290c:	01440a33          	add	s4,s0,s4
20002910:	389010ef          	jal	20004498 <_sbrk_r>
20002914:	0eaa1463          	bne	s4,a0,200029fc <_malloc_r+0x1a4>
20002918:	00042783          	lw	a5,0(s0)
2000291c:	00090513          	mv	a0,s2
20002920:	40f484b3          	sub	s1,s1,a5
20002924:	00048593          	mv	a1,s1
20002928:	ea9ff0ef          	jal	200027d0 <sbrk_aligned>
2000292c:	fff00793          	li	a5,-1
20002930:	0cf50663          	beq	a0,a5,200029fc <_malloc_r+0x1a4>
20002934:	00042783          	lw	a5,0(s0)
20002938:	009787b3          	add	a5,a5,s1
2000293c:	00f42023          	sw	a5,0(s0)
20002940:	e689a783          	lw	a5,-408(s3)
20002944:	0047a703          	lw	a4,4(a5)
20002948:	0a071063          	bnez	a4,200029e8 <_malloc_r+0x190>
2000294c:	e609a423          	sw	zero,-408(s3)
20002950:	0340006f          	j	20002984 <_malloc_r+0x12c>
20002954:	00042683          	lw	a3,0(s0)
20002958:	409686b3          	sub	a3,a3,s1
2000295c:	0606ca63          	bltz	a3,200029d0 <_malloc_r+0x178>
20002960:	00b00713          	li	a4,11
20002964:	04d77a63          	bgeu	a4,a3,200029b8 <_malloc_r+0x160>
20002968:	00942023          	sw	s1,0(s0)
2000296c:	00940733          	add	a4,s0,s1
20002970:	04879063          	bne	a5,s0,200029b0 <_malloc_r+0x158>
20002974:	e6e9a423          	sw	a4,-408(s3)
20002978:	00442783          	lw	a5,4(s0)
2000297c:	00d72023          	sw	a3,0(a4)
20002980:	00f72223          	sw	a5,4(a4)
20002984:	00090513          	mv	a0,s2
20002988:	094000ef          	jal	20002a1c <__malloc_unlock>
2000298c:	00b40513          	addi	a0,s0,11
20002990:	00440793          	addi	a5,s0,4
20002994:	ff857513          	andi	a0,a0,-8
20002998:	40f50733          	sub	a4,a0,a5
2000299c:	f0f502e3          	beq	a0,a5,200028a0 <_malloc_r+0x48>
200029a0:	00e40433          	add	s0,s0,a4
200029a4:	40a787b3          	sub	a5,a5,a0
200029a8:	00f42023          	sw	a5,0(s0)
200029ac:	ef5ff06f          	j	200028a0 <_malloc_r+0x48>
200029b0:	00e7a223          	sw	a4,4(a5)
200029b4:	fc5ff06f          	j	20002978 <_malloc_r+0x120>
200029b8:	00442703          	lw	a4,4(s0)
200029bc:	00879663          	bne	a5,s0,200029c8 <_malloc_r+0x170>
200029c0:	e6e9a423          	sw	a4,-408(s3)
200029c4:	fc1ff06f          	j	20002984 <_malloc_r+0x12c>
200029c8:	00e7a223          	sw	a4,4(a5)
200029cc:	fb9ff06f          	j	20002984 <_malloc_r+0x12c>
200029d0:	00040793          	mv	a5,s0
200029d4:	00442403          	lw	s0,4(s0)
200029d8:	efdff06f          	j	200028d4 <_malloc_r+0x7c>
200029dc:	00078413          	mv	s0,a5
200029e0:	0047a783          	lw	a5,4(a5)
200029e4:	f15ff06f          	j	200028f8 <_malloc_r+0xa0>
200029e8:	00078713          	mv	a4,a5
200029ec:	0047a783          	lw	a5,4(a5)
200029f0:	fe879ce3          	bne	a5,s0,200029e8 <_malloc_r+0x190>
200029f4:	00072223          	sw	zero,4(a4)
200029f8:	f8dff06f          	j	20002984 <_malloc_r+0x12c>
200029fc:	00c00793          	li	a5,12
20002a00:	00f92023          	sw	a5,0(s2)
20002a04:	00090513          	mv	a0,s2
20002a08:	014000ef          	jal	20002a1c <__malloc_unlock>
20002a0c:	e91ff06f          	j	2000289c <_malloc_r+0x44>
20002a10:	00952023          	sw	s1,0(a0)
20002a14:	f71ff06f          	j	20002984 <_malloc_r+0x12c>

20002a18 <__malloc_lock>:
20002a18:	00008067          	ret

20002a1c <__malloc_unlock>:
20002a1c:	00008067          	ret

20002a20 <__sfputc_r>:
20002a20:	00862783          	lw	a5,8(a2) # 10008 <_start-0x1ffefff8>
20002a24:	fff78793          	addi	a5,a5,-1
20002a28:	00f62423          	sw	a5,8(a2)
20002a2c:	0007dc63          	bgez	a5,20002a44 <__sfputc_r+0x24>
20002a30:	01862703          	lw	a4,24(a2)
20002a34:	00e7c663          	blt	a5,a4,20002a40 <__sfputc_r+0x20>
20002a38:	ff658793          	addi	a5,a1,-10
20002a3c:	00079463          	bnez	a5,20002a44 <__sfputc_r+0x24>
20002a40:	a3dff06f          	j	2000247c <__swbuf_r>
20002a44:	00062783          	lw	a5,0(a2)
20002a48:	00058513          	mv	a0,a1
20002a4c:	00178713          	addi	a4,a5,1
20002a50:	00e62023          	sw	a4,0(a2)
20002a54:	00b78023          	sb	a1,0(a5)
20002a58:	00008067          	ret

20002a5c <__sfputs_r>:
20002a5c:	fe010113          	addi	sp,sp,-32
20002a60:	00812c23          	sw	s0,24(sp)
20002a64:	00912a23          	sw	s1,20(sp)
20002a68:	01212823          	sw	s2,16(sp)
20002a6c:	01312623          	sw	s3,12(sp)
20002a70:	01412423          	sw	s4,8(sp)
20002a74:	00112e23          	sw	ra,28(sp)
20002a78:	00050993          	mv	s3,a0
20002a7c:	00058a13          	mv	s4,a1
20002a80:	00060413          	mv	s0,a2
20002a84:	00d604b3          	add	s1,a2,a3
20002a88:	fff00913          	li	s2,-1
20002a8c:	00941663          	bne	s0,s1,20002a98 <__sfputs_r+0x3c>
20002a90:	00000513          	li	a0,0
20002a94:	01c0006f          	j	20002ab0 <__sfputs_r+0x54>
20002a98:	00044583          	lbu	a1,0(s0)
20002a9c:	000a0613          	mv	a2,s4
20002aa0:	00098513          	mv	a0,s3
20002aa4:	f7dff0ef          	jal	20002a20 <__sfputc_r>
20002aa8:	00140413          	addi	s0,s0,1
20002aac:	ff2510e3          	bne	a0,s2,20002a8c <__sfputs_r+0x30>
20002ab0:	01c12083          	lw	ra,28(sp)
20002ab4:	01812403          	lw	s0,24(sp)
20002ab8:	01412483          	lw	s1,20(sp)
20002abc:	01012903          	lw	s2,16(sp)
20002ac0:	00c12983          	lw	s3,12(sp)
20002ac4:	00812a03          	lw	s4,8(sp)
20002ac8:	02010113          	addi	sp,sp,32
20002acc:	00008067          	ret

20002ad0 <__sprint_r>:
20002ad0:	00862783          	lw	a5,8(a2)
20002ad4:	ff010113          	addi	sp,sp,-16
20002ad8:	00812423          	sw	s0,8(sp)
20002adc:	00112623          	sw	ra,12(sp)
20002ae0:	00060413          	mv	s0,a2
20002ae4:	02078063          	beqz	a5,20002b04 <__sprint_r+0x34>
20002ae8:	645000ef          	jal	2000392c <__sfvwrite_r>
20002aec:	00042423          	sw	zero,8(s0)
20002af0:	00c12083          	lw	ra,12(sp)
20002af4:	00042223          	sw	zero,4(s0)
20002af8:	00812403          	lw	s0,8(sp)
20002afc:	01010113          	addi	sp,sp,16
20002b00:	00008067          	ret
20002b04:	00000513          	li	a0,0
20002b08:	fe9ff06f          	j	20002af0 <__sprint_r+0x20>

20002b0c <_vfiprintf_r>:
20002b0c:	f5010113          	addi	sp,sp,-176
20002b10:	0a812423          	sw	s0,168(sp)
20002b14:	0a912223          	sw	s1,164(sp)
20002b18:	09312e23          	sw	s3,156(sp)
20002b1c:	09412c23          	sw	s4,152(sp)
20002b20:	0a112623          	sw	ra,172(sp)
20002b24:	0b212023          	sw	s2,160(sp)
20002b28:	09512a23          	sw	s5,148(sp)
20002b2c:	09612823          	sw	s6,144(sp)
20002b30:	09712623          	sw	s7,140(sp)
20002b34:	09812423          	sw	s8,136(sp)
20002b38:	09912223          	sw	s9,132(sp)
20002b3c:	00050993          	mv	s3,a0
20002b40:	00058493          	mv	s1,a1
20002b44:	00060413          	mv	s0,a2
20002b48:	00068a13          	mv	s4,a3
20002b4c:	00050863          	beqz	a0,20002b5c <_vfiprintf_r+0x50>
20002b50:	02052783          	lw	a5,32(a0)
20002b54:	00079463          	bnez	a5,20002b5c <_vfiprintf_r+0x50>
20002b58:	575000ef          	jal	200038cc <__sinit>
20002b5c:	00c4d783          	lhu	a5,12(s1)
20002b60:	0087f793          	andi	a5,a5,8
20002b64:	10078a63          	beqz	a5,20002c78 <_vfiprintf_r+0x16c>
20002b68:	0104a783          	lw	a5,16(s1)
20002b6c:	10078663          	beqz	a5,20002c78 <_vfiprintf_r+0x16c>
20002b70:	02000793          	li	a5,32
20002b74:	02f10ca3          	sb	a5,57(sp)
20002b78:	01412e23          	sw	s4,28(sp)
20002b7c:	03000793          	li	a5,48
20002b80:	20005a37          	lui	s4,0x20005
20002b84:	02012a23          	sw	zero,52(sp)
20002b88:	02f10d23          	sb	a5,58(sp)
20002b8c:	fff00a93          	li	s5,-1
20002b90:	bc8a0a13          	addi	s4,s4,-1080 # 20004bc8 <__clz_tab+0x100>
20002b94:	00100b93          	li	s7,1
20002b98:	00a00b13          	li	s6,10
20002b9c:	00040c13          	mv	s8,s0
20002ba0:	000c4783          	lbu	a5,0(s8)
20002ba4:	00f03cb3          	snez	s9,a5
20002ba8:	fdb78793          	addi	a5,a5,-37
20002bac:	00f037b3          	snez	a5,a5
20002bb0:	00fcfcb3          	and	s9,s9,a5
20002bb4:	100c9663          	bnez	s9,20002cc0 <_vfiprintf_r+0x1b4>
20002bb8:	408c06b3          	sub	a3,s8,s0
20002bbc:	028c0663          	beq	s8,s0,20002be8 <_vfiprintf_r+0xdc>
20002bc0:	00040613          	mv	a2,s0
20002bc4:	00048593          	mv	a1,s1
20002bc8:	00098513          	mv	a0,s3
20002bcc:	00d12623          	sw	a3,12(sp)
20002bd0:	e8dff0ef          	jal	20002a5c <__sfputs_r>
20002bd4:	29550063          	beq	a0,s5,20002e54 <_vfiprintf_r+0x348>
20002bd8:	03412783          	lw	a5,52(sp)
20002bdc:	00c12683          	lw	a3,12(sp)
20002be0:	00d787b3          	add	a5,a5,a3
20002be4:	02f12a23          	sw	a5,52(sp)
20002be8:	000c4783          	lbu	a5,0(s8)
20002bec:	26078463          	beqz	a5,20002e54 <_vfiprintf_r+0x348>
20002bf0:	001c0413          	addi	s0,s8,1
20002bf4:	02012023          	sw	zero,32(sp)
20002bf8:	02012623          	sw	zero,44(sp)
20002bfc:	03512223          	sw	s5,36(sp)
20002c00:	02012423          	sw	zero,40(sp)
20002c04:	060101a3          	sb	zero,99(sp)
20002c08:	06012c23          	sw	zero,120(sp)
20002c0c:	00044583          	lbu	a1,0(s0)
20002c10:	00500613          	li	a2,5
20002c14:	000a0513          	mv	a0,s4
20002c18:	550010ef          	jal	20004168 <memchr>
20002c1c:	02012783          	lw	a5,32(sp)
20002c20:	00140693          	addi	a3,s0,1
20002c24:	0a051263          	bnez	a0,20002cc8 <_vfiprintf_r+0x1bc>
20002c28:	0107f713          	andi	a4,a5,16
20002c2c:	00070663          	beqz	a4,20002c38 <_vfiprintf_r+0x12c>
20002c30:	02000713          	li	a4,32
20002c34:	06e101a3          	sb	a4,99(sp)
20002c38:	0087f713          	andi	a4,a5,8
20002c3c:	00070663          	beqz	a4,20002c48 <_vfiprintf_r+0x13c>
20002c40:	02b00713          	li	a4,43
20002c44:	06e101a3          	sb	a4,99(sp)
20002c48:	00044603          	lbu	a2,0(s0)
20002c4c:	02a00713          	li	a4,42
20002c50:	08e60863          	beq	a2,a4,20002ce0 <_vfiprintf_r+0x1d4>
20002c54:	02c12783          	lw	a5,44(sp)
20002c58:	00000693          	li	a3,0
20002c5c:	00900613          	li	a2,9
20002c60:	00044703          	lbu	a4,0(s0)
20002c64:	fd070713          	addi	a4,a4,-48
20002c68:	0ee67263          	bgeu	a2,a4,20002d4c <_vfiprintf_r+0x240>
20002c6c:	08068863          	beqz	a3,20002cfc <_vfiprintf_r+0x1f0>
20002c70:	02f12623          	sw	a5,44(sp)
20002c74:	0880006f          	j	20002cfc <_vfiprintf_r+0x1f0>
20002c78:	00048593          	mv	a1,s1
20002c7c:	00098513          	mv	a0,s3
20002c80:	90dff0ef          	jal	2000258c <__swsetup_r>
20002c84:	ee0506e3          	beqz	a0,20002b70 <_vfiprintf_r+0x64>
20002c88:	fff00513          	li	a0,-1
20002c8c:	0ac12083          	lw	ra,172(sp)
20002c90:	0a812403          	lw	s0,168(sp)
20002c94:	0a412483          	lw	s1,164(sp)
20002c98:	0a012903          	lw	s2,160(sp)
20002c9c:	09c12983          	lw	s3,156(sp)
20002ca0:	09812a03          	lw	s4,152(sp)
20002ca4:	09412a83          	lw	s5,148(sp)
20002ca8:	09012b03          	lw	s6,144(sp)
20002cac:	08c12b83          	lw	s7,140(sp)
20002cb0:	08812c03          	lw	s8,136(sp)
20002cb4:	08412c83          	lw	s9,132(sp)
20002cb8:	0b010113          	addi	sp,sp,176
20002cbc:	00008067          	ret
20002cc0:	001c0c13          	addi	s8,s8,1
20002cc4:	eddff06f          	j	20002ba0 <_vfiprintf_r+0x94>
20002cc8:	41450533          	sub	a0,a0,s4
20002ccc:	00ab9533          	sll	a0,s7,a0
20002cd0:	00f56533          	or	a0,a0,a5
20002cd4:	02a12023          	sw	a0,32(sp)
20002cd8:	00068413          	mv	s0,a3
20002cdc:	f31ff06f          	j	20002c0c <_vfiprintf_r+0x100>
20002ce0:	01c12703          	lw	a4,28(sp)
20002ce4:	00470613          	addi	a2,a4,4
20002ce8:	00072703          	lw	a4,0(a4)
20002cec:	00c12e23          	sw	a2,28(sp)
20002cf0:	04074463          	bltz	a4,20002d38 <_vfiprintf_r+0x22c>
20002cf4:	02e12623          	sw	a4,44(sp)
20002cf8:	00068413          	mv	s0,a3
20002cfc:	00044703          	lbu	a4,0(s0)
20002d00:	02e00793          	li	a5,46
20002d04:	06f71e63          	bne	a4,a5,20002d80 <_vfiprintf_r+0x274>
20002d08:	00144703          	lbu	a4,1(s0)
20002d0c:	02a00793          	li	a5,42
20002d10:	04f71863          	bne	a4,a5,20002d60 <_vfiprintf_r+0x254>
20002d14:	01c12783          	lw	a5,28(sp)
20002d18:	00240413          	addi	s0,s0,2
20002d1c:	00478713          	addi	a4,a5,4
20002d20:	0007a783          	lw	a5,0(a5)
20002d24:	00e12e23          	sw	a4,28(sp)
20002d28:	0007d463          	bgez	a5,20002d30 <_vfiprintf_r+0x224>
20002d2c:	fff00793          	li	a5,-1
20002d30:	02f12223          	sw	a5,36(sp)
20002d34:	04c0006f          	j	20002d80 <_vfiprintf_r+0x274>
20002d38:	40e00733          	neg	a4,a4
20002d3c:	0027e793          	ori	a5,a5,2
20002d40:	02e12623          	sw	a4,44(sp)
20002d44:	02f12023          	sw	a5,32(sp)
20002d48:	fb1ff06f          	j	20002cf8 <_vfiprintf_r+0x1ec>
20002d4c:	036787b3          	mul	a5,a5,s6
20002d50:	00140413          	addi	s0,s0,1
20002d54:	00100693          	li	a3,1
20002d58:	00e787b3          	add	a5,a5,a4
20002d5c:	f05ff06f          	j	20002c60 <_vfiprintf_r+0x154>
20002d60:	00140413          	addi	s0,s0,1
20002d64:	02012223          	sw	zero,36(sp)
20002d68:	00000793          	li	a5,0
20002d6c:	00900693          	li	a3,9
20002d70:	00044703          	lbu	a4,0(s0)
20002d74:	fd070713          	addi	a4,a4,-48
20002d78:	08e6f863          	bgeu	a3,a4,20002e08 <_vfiprintf_r+0x2fc>
20002d7c:	fa0c9ae3          	bnez	s9,20002d30 <_vfiprintf_r+0x224>
20002d80:	00044583          	lbu	a1,0(s0)
20002d84:	20005c37          	lui	s8,0x20005
20002d88:	00300613          	li	a2,3
20002d8c:	bd0c0513          	addi	a0,s8,-1072 # 20004bd0 <__clz_tab+0x108>
20002d90:	3d8010ef          	jal	20004168 <memchr>
20002d94:	02050263          	beqz	a0,20002db8 <_vfiprintf_r+0x2ac>
20002d98:	02012783          	lw	a5,32(sp)
20002d9c:	bd0c0c13          	addi	s8,s8,-1072
20002da0:	41850533          	sub	a0,a0,s8
20002da4:	04000713          	li	a4,64
20002da8:	00a71733          	sll	a4,a4,a0
20002dac:	00e7e7b3          	or	a5,a5,a4
20002db0:	00140413          	addi	s0,s0,1
20002db4:	02f12023          	sw	a5,32(sp)
20002db8:	00044583          	lbu	a1,0(s0)
20002dbc:	20005537          	lui	a0,0x20005
20002dc0:	00600613          	li	a2,6
20002dc4:	bd450513          	addi	a0,a0,-1068 # 20004bd4 <__clz_tab+0x10c>
20002dc8:	02b10c23          	sb	a1,56(sp)
20002dcc:	39c010ef          	jal	20004168 <memchr>
20002dd0:	08050c63          	beqz	a0,20002e68 <_vfiprintf_r+0x35c>
20002dd4:	00000793          	li	a5,0
20002dd8:	04079a63          	bnez	a5,20002e2c <_vfiprintf_r+0x320>
20002ddc:	02012703          	lw	a4,32(sp)
20002de0:	01c12783          	lw	a5,28(sp)
20002de4:	10077713          	andi	a4,a4,256
20002de8:	02070a63          	beqz	a4,20002e1c <_vfiprintf_r+0x310>
20002dec:	00478793          	addi	a5,a5,4
20002df0:	00f12e23          	sw	a5,28(sp)
20002df4:	03412783          	lw	a5,52(sp)
20002df8:	00140413          	addi	s0,s0,1
20002dfc:	012787b3          	add	a5,a5,s2
20002e00:	02f12a23          	sw	a5,52(sp)
20002e04:	d99ff06f          	j	20002b9c <_vfiprintf_r+0x90>
20002e08:	036787b3          	mul	a5,a5,s6
20002e0c:	00140413          	addi	s0,s0,1
20002e10:	00100c93          	li	s9,1
20002e14:	00e787b3          	add	a5,a5,a4
20002e18:	f59ff06f          	j	20002d70 <_vfiprintf_r+0x264>
20002e1c:	00778793          	addi	a5,a5,7
20002e20:	ff87f793          	andi	a5,a5,-8
20002e24:	00878793          	addi	a5,a5,8
20002e28:	fc9ff06f          	j	20002df0 <_vfiprintf_r+0x2e4>
20002e2c:	200036b7          	lui	a3,0x20003
20002e30:	01c10713          	addi	a4,sp,28
20002e34:	a5c68693          	addi	a3,a3,-1444 # 20002a5c <__sfputs_r>
20002e38:	00048613          	mv	a2,s1
20002e3c:	02010593          	addi	a1,sp,32
20002e40:	00098513          	mv	a0,s3
20002e44:	00000097          	auipc	ra,0x0
20002e48:	000000e7          	jalr	zero # 0 <_start-0x20000000>
20002e4c:	00050913          	mv	s2,a0
20002e50:	fb5512e3          	bne	a0,s5,20002df4 <_vfiprintf_r+0x2e8>
20002e54:	00c4d783          	lhu	a5,12(s1)
20002e58:	0407f793          	andi	a5,a5,64
20002e5c:	e20796e3          	bnez	a5,20002c88 <_vfiprintf_r+0x17c>
20002e60:	03412503          	lw	a0,52(sp)
20002e64:	e29ff06f          	j	20002c8c <_vfiprintf_r+0x180>
20002e68:	200036b7          	lui	a3,0x20003
20002e6c:	01c10713          	addi	a4,sp,28
20002e70:	a5c68693          	addi	a3,a3,-1444 # 20002a5c <__sfputs_r>
20002e74:	00048613          	mv	a2,s1
20002e78:	02010593          	addi	a1,sp,32
20002e7c:	00098513          	mv	a0,s3
20002e80:	1d4000ef          	jal	20003054 <_printf_i>
20002e84:	fc9ff06f          	j	20002e4c <_vfiprintf_r+0x340>

20002e88 <vfiprintf>:
20002e88:	200057b7          	lui	a5,0x20005
20002e8c:	00060693          	mv	a3,a2
20002e90:	00058613          	mv	a2,a1
20002e94:	00050593          	mv	a1,a0
20002e98:	cf07a503          	lw	a0,-784(a5) # 20004cf0 <_impure_ptr>
20002e9c:	c71ff06f          	j	20002b0c <_vfiprintf_r>

20002ea0 <_printf_common>:
20002ea0:	fd010113          	addi	sp,sp,-48
20002ea4:	01312e23          	sw	s3,28(sp)
20002ea8:	0105a783          	lw	a5,16(a1)
20002eac:	00070993          	mv	s3,a4
20002eb0:	0085a703          	lw	a4,8(a1)
20002eb4:	02812423          	sw	s0,40(sp)
20002eb8:	03212023          	sw	s2,32(sp)
20002ebc:	01612823          	sw	s6,16(sp)
20002ec0:	01712623          	sw	s7,12(sp)
20002ec4:	02112623          	sw	ra,44(sp)
20002ec8:	02912223          	sw	s1,36(sp)
20002ecc:	01412c23          	sw	s4,24(sp)
20002ed0:	01512a23          	sw	s5,20(sp)
20002ed4:	00050b13          	mv	s6,a0
20002ed8:	00058413          	mv	s0,a1
20002edc:	00060913          	mv	s2,a2
20002ee0:	00068b93          	mv	s7,a3
20002ee4:	00e7d463          	bge	a5,a4,20002eec <_printf_common+0x4c>
20002ee8:	00070793          	mv	a5,a4
20002eec:	00f92023          	sw	a5,0(s2)
20002ef0:	04344703          	lbu	a4,67(s0)
20002ef4:	00070663          	beqz	a4,20002f00 <_printf_common+0x60>
20002ef8:	00178793          	addi	a5,a5,1
20002efc:	00f92023          	sw	a5,0(s2)
20002f00:	00042783          	lw	a5,0(s0)
20002f04:	0207f793          	andi	a5,a5,32
20002f08:	00078863          	beqz	a5,20002f18 <_printf_common+0x78>
20002f0c:	00092783          	lw	a5,0(s2)
20002f10:	00278793          	addi	a5,a5,2
20002f14:	00f92023          	sw	a5,0(s2)
20002f18:	00042483          	lw	s1,0(s0)
20002f1c:	0064f493          	andi	s1,s1,6
20002f20:	00049e63          	bnez	s1,20002f3c <_printf_common+0x9c>
20002f24:	01940a13          	addi	s4,s0,25
20002f28:	fff00a93          	li	s5,-1
20002f2c:	00c42783          	lw	a5,12(s0)
20002f30:	00092703          	lw	a4,0(s2)
20002f34:	40e787b3          	sub	a5,a5,a4
20002f38:	08f4c463          	blt	s1,a5,20002fc0 <_printf_common+0x120>
20002f3c:	00042783          	lw	a5,0(s0)
20002f40:	04344683          	lbu	a3,67(s0)
20002f44:	0207f793          	andi	a5,a5,32
20002f48:	00d036b3          	snez	a3,a3
20002f4c:	0c079263          	bnez	a5,20003010 <_printf_common+0x170>
20002f50:	04340613          	addi	a2,s0,67
20002f54:	000b8593          	mv	a1,s7
20002f58:	000b0513          	mv	a0,s6
20002f5c:	000980e7          	jalr	s3
20002f60:	fff00793          	li	a5,-1
20002f64:	06f50a63          	beq	a0,a5,20002fd8 <_printf_common+0x138>
20002f68:	00042783          	lw	a5,0(s0)
20002f6c:	00400713          	li	a4,4
20002f70:	00000493          	li	s1,0
20002f74:	0067f793          	andi	a5,a5,6
20002f78:	00e79e63          	bne	a5,a4,20002f94 <_printf_common+0xf4>
20002f7c:	00092783          	lw	a5,0(s2)
20002f80:	00c42483          	lw	s1,12(s0)
20002f84:	40f484b3          	sub	s1,s1,a5
20002f88:	fff4c793          	not	a5,s1
20002f8c:	41f7d793          	srai	a5,a5,0x1f
20002f90:	00f4f4b3          	and	s1,s1,a5
20002f94:	00842783          	lw	a5,8(s0)
20002f98:	01042703          	lw	a4,16(s0)
20002f9c:	00f75663          	bge	a4,a5,20002fa8 <_printf_common+0x108>
20002fa0:	40e787b3          	sub	a5,a5,a4
20002fa4:	00f484b3          	add	s1,s1,a5
20002fa8:	00000913          	li	s2,0
20002fac:	01a40413          	addi	s0,s0,26
20002fb0:	fff00a13          	li	s4,-1
20002fb4:	09249063          	bne	s1,s2,20003034 <_printf_common+0x194>
20002fb8:	00000513          	li	a0,0
20002fbc:	0200006f          	j	20002fdc <_printf_common+0x13c>
20002fc0:	00100693          	li	a3,1
20002fc4:	000a0613          	mv	a2,s4
20002fc8:	000b8593          	mv	a1,s7
20002fcc:	000b0513          	mv	a0,s6
20002fd0:	000980e7          	jalr	s3
20002fd4:	03551a63          	bne	a0,s5,20003008 <_printf_common+0x168>
20002fd8:	fff00513          	li	a0,-1
20002fdc:	02c12083          	lw	ra,44(sp)
20002fe0:	02812403          	lw	s0,40(sp)
20002fe4:	02412483          	lw	s1,36(sp)
20002fe8:	02012903          	lw	s2,32(sp)
20002fec:	01c12983          	lw	s3,28(sp)
20002ff0:	01812a03          	lw	s4,24(sp)
20002ff4:	01412a83          	lw	s5,20(sp)
20002ff8:	01012b03          	lw	s6,16(sp)
20002ffc:	00c12b83          	lw	s7,12(sp)
20003000:	03010113          	addi	sp,sp,48
20003004:	00008067          	ret
20003008:	00148493          	addi	s1,s1,1
2000300c:	f21ff06f          	j	20002f2c <_printf_common+0x8c>
20003010:	00d40733          	add	a4,s0,a3
20003014:	03000613          	li	a2,48
20003018:	04c701a3          	sb	a2,67(a4)
2000301c:	04544703          	lbu	a4,69(s0)
20003020:	00168793          	addi	a5,a3,1
20003024:	00f407b3          	add	a5,s0,a5
20003028:	00268693          	addi	a3,a3,2
2000302c:	04e781a3          	sb	a4,67(a5)
20003030:	f21ff06f          	j	20002f50 <_printf_common+0xb0>
20003034:	00100693          	li	a3,1
20003038:	00040613          	mv	a2,s0
2000303c:	000b8593          	mv	a1,s7
20003040:	000b0513          	mv	a0,s6
20003044:	000980e7          	jalr	s3
20003048:	f94508e3          	beq	a0,s4,20002fd8 <_printf_common+0x138>
2000304c:	00190913          	addi	s2,s2,1
20003050:	f65ff06f          	j	20002fb4 <_printf_common+0x114>

20003054 <_printf_i>:
20003054:	fc010113          	addi	sp,sp,-64
20003058:	02812c23          	sw	s0,56(sp)
2000305c:	02912a23          	sw	s1,52(sp)
20003060:	03412423          	sw	s4,40(sp)
20003064:	03512223          	sw	s5,36(sp)
20003068:	02112e23          	sw	ra,60(sp)
2000306c:	03212823          	sw	s2,48(sp)
20003070:	03312623          	sw	s3,44(sp)
20003074:	0185c783          	lbu	a5,24(a1)
20003078:	00068493          	mv	s1,a3
2000307c:	07800693          	li	a3,120
20003080:	00050a13          	mv	s4,a0
20003084:	00058413          	mv	s0,a1
20003088:	00060a93          	mv	s5,a2
2000308c:	00f6ee63          	bltu	a3,a5,200030a8 <_printf_i+0x54>
20003090:	06200693          	li	a3,98
20003094:	04358613          	addi	a2,a1,67
20003098:	00f6ec63          	bltu	a3,a5,200030b0 <_printf_i+0x5c>
2000309c:	28078263          	beqz	a5,20003320 <_printf_i+0x2cc>
200030a0:	05800693          	li	a3,88
200030a4:	20d78e63          	beq	a5,a3,200032c0 <_printf_i+0x26c>
200030a8:	04240913          	addi	s2,s0,66
200030ac:	0400006f          	j	200030ec <_printf_i+0x98>
200030b0:	f9d78693          	addi	a3,a5,-99
200030b4:	0ff6f693          	zext.b	a3,a3
200030b8:	01500593          	li	a1,21
200030bc:	fed5e6e3          	bltu	a1,a3,200030a8 <_printf_i+0x54>
200030c0:	200055b7          	lui	a1,0x20005
200030c4:	00269693          	slli	a3,a3,0x2
200030c8:	c0458593          	addi	a1,a1,-1020 # 20004c04 <__clz_tab+0x13c>
200030cc:	00b686b3          	add	a3,a3,a1
200030d0:	0006a683          	lw	a3,0(a3)
200030d4:	00068067          	jr	a3
200030d8:	00072783          	lw	a5,0(a4)
200030dc:	04240913          	addi	s2,s0,66
200030e0:	00478693          	addi	a3,a5,4
200030e4:	0007a783          	lw	a5,0(a5)
200030e8:	00d72023          	sw	a3,0(a4)
200030ec:	04f40123          	sb	a5,66(s0)
200030f0:	00100793          	li	a5,1
200030f4:	2680006f          	j	2000335c <_printf_i+0x308>
200030f8:	00042783          	lw	a5,0(s0)
200030fc:	00072503          	lw	a0,0(a4)
20003100:	0807f693          	andi	a3,a5,128
20003104:	00450593          	addi	a1,a0,4
20003108:	02068663          	beqz	a3,20003134 <_printf_i+0xe0>
2000310c:	00052783          	lw	a5,0(a0)
20003110:	00b72023          	sw	a1,0(a4)
20003114:	200056b7          	lui	a3,0x20005
20003118:	0007d863          	bgez	a5,20003128 <_printf_i+0xd4>
2000311c:	02d00713          	li	a4,45
20003120:	40f007b3          	neg	a5,a5
20003124:	04e401a3          	sb	a4,67(s0)
20003128:	bdc68693          	addi	a3,a3,-1060 # 20004bdc <__clz_tab+0x114>
2000312c:	00a00713          	li	a4,10
20003130:	0680006f          	j	20003198 <_printf_i+0x144>
20003134:	0407f693          	andi	a3,a5,64
20003138:	00052783          	lw	a5,0(a0)
2000313c:	00b72023          	sw	a1,0(a4)
20003140:	fc068ae3          	beqz	a3,20003114 <_printf_i+0xc0>
20003144:	01079793          	slli	a5,a5,0x10
20003148:	4107d793          	srai	a5,a5,0x10
2000314c:	fc9ff06f          	j	20003114 <_printf_i+0xc0>
20003150:	00042583          	lw	a1,0(s0)
20003154:	00072683          	lw	a3,0(a4)
20003158:	0805f513          	andi	a0,a1,128
2000315c:	0006a783          	lw	a5,0(a3)
20003160:	00468693          	addi	a3,a3,4
20003164:	00051a63          	bnez	a0,20003178 <_printf_i+0x124>
20003168:	0405f593          	andi	a1,a1,64
2000316c:	00058663          	beqz	a1,20003178 <_printf_i+0x124>
20003170:	01079793          	slli	a5,a5,0x10
20003174:	0107d793          	srli	a5,a5,0x10
20003178:	00d72023          	sw	a3,0(a4)
2000317c:	01844583          	lbu	a1,24(s0)
20003180:	200056b7          	lui	a3,0x20005
20003184:	06f00713          	li	a4,111
20003188:	bdc68693          	addi	a3,a3,-1060 # 20004bdc <__clz_tab+0x114>
2000318c:	14e59863          	bne	a1,a4,200032dc <_printf_i+0x288>
20003190:	00800713          	li	a4,8
20003194:	040401a3          	sb	zero,67(s0)
20003198:	00442583          	lw	a1,4(s0)
2000319c:	00b42423          	sw	a1,8(s0)
200031a0:	0005ce63          	bltz	a1,200031bc <_printf_i+0x168>
200031a4:	00042503          	lw	a0,0(s0)
200031a8:	00b7e5b3          	or	a1,a5,a1
200031ac:	00060913          	mv	s2,a2
200031b0:	ffb57513          	andi	a0,a0,-5
200031b4:	00a42023          	sw	a0,0(s0)
200031b8:	02058463          	beqz	a1,200031e0 <_printf_i+0x18c>
200031bc:	00060913          	mv	s2,a2
200031c0:	02e7f5b3          	remu	a1,a5,a4
200031c4:	fff90913          	addi	s2,s2,-1
200031c8:	00b685b3          	add	a1,a3,a1
200031cc:	0005c583          	lbu	a1,0(a1)
200031d0:	00b90023          	sb	a1,0(s2)
200031d4:	00078593          	mv	a1,a5
200031d8:	02e7d7b3          	divu	a5,a5,a4
200031dc:	fee5f2e3          	bgeu	a1,a4,200031c0 <_printf_i+0x16c>
200031e0:	00800793          	li	a5,8
200031e4:	02f71463          	bne	a4,a5,2000320c <_printf_i+0x1b8>
200031e8:	00042783          	lw	a5,0(s0)
200031ec:	0017f793          	andi	a5,a5,1
200031f0:	00078e63          	beqz	a5,2000320c <_printf_i+0x1b8>
200031f4:	00442703          	lw	a4,4(s0)
200031f8:	01042783          	lw	a5,16(s0)
200031fc:	00e7c863          	blt	a5,a4,2000320c <_printf_i+0x1b8>
20003200:	03000793          	li	a5,48
20003204:	fef90fa3          	sb	a5,-1(s2)
20003208:	fff90913          	addi	s2,s2,-1
2000320c:	41260633          	sub	a2,a2,s2
20003210:	00c42823          	sw	a2,16(s0)
20003214:	00048713          	mv	a4,s1
20003218:	000a8693          	mv	a3,s5
2000321c:	01c10613          	addi	a2,sp,28
20003220:	00040593          	mv	a1,s0
20003224:	000a0513          	mv	a0,s4
20003228:	c79ff0ef          	jal	20002ea0 <_printf_common>
2000322c:	fff00993          	li	s3,-1
20003230:	13351c63          	bne	a0,s3,20003368 <_printf_i+0x314>
20003234:	fff00513          	li	a0,-1
20003238:	03c12083          	lw	ra,60(sp)
2000323c:	03812403          	lw	s0,56(sp)
20003240:	03412483          	lw	s1,52(sp)
20003244:	03012903          	lw	s2,48(sp)
20003248:	02c12983          	lw	s3,44(sp)
2000324c:	02812a03          	lw	s4,40(sp)
20003250:	02412a83          	lw	s5,36(sp)
20003254:	04010113          	addi	sp,sp,64
20003258:	00008067          	ret
2000325c:	00042783          	lw	a5,0(s0)
20003260:	0207e793          	ori	a5,a5,32
20003264:	00f42023          	sw	a5,0(s0)
20003268:	200056b7          	lui	a3,0x20005
2000326c:	07800793          	li	a5,120
20003270:	bf068693          	addi	a3,a3,-1040 # 20004bf0 <__clz_tab+0x128>
20003274:	04f402a3          	sb	a5,69(s0)
20003278:	00042583          	lw	a1,0(s0)
2000327c:	00072503          	lw	a0,0(a4)
20003280:	0805f813          	andi	a6,a1,128
20003284:	00052783          	lw	a5,0(a0)
20003288:	00450513          	addi	a0,a0,4
2000328c:	00081a63          	bnez	a6,200032a0 <_printf_i+0x24c>
20003290:	0405f813          	andi	a6,a1,64
20003294:	00080663          	beqz	a6,200032a0 <_printf_i+0x24c>
20003298:	01079793          	slli	a5,a5,0x10
2000329c:	0107d793          	srli	a5,a5,0x10
200032a0:	00a72023          	sw	a0,0(a4)
200032a4:	0015f713          	andi	a4,a1,1
200032a8:	00070663          	beqz	a4,200032b4 <_printf_i+0x260>
200032ac:	0205e593          	ori	a1,a1,32
200032b0:	00b42023          	sw	a1,0(s0)
200032b4:	00078c63          	beqz	a5,200032cc <_printf_i+0x278>
200032b8:	01000713          	li	a4,16
200032bc:	ed9ff06f          	j	20003194 <_printf_i+0x140>
200032c0:	200056b7          	lui	a3,0x20005
200032c4:	bdc68693          	addi	a3,a3,-1060 # 20004bdc <__clz_tab+0x114>
200032c8:	fadff06f          	j	20003274 <_printf_i+0x220>
200032cc:	00042703          	lw	a4,0(s0)
200032d0:	fdf77713          	andi	a4,a4,-33
200032d4:	00e42023          	sw	a4,0(s0)
200032d8:	fe1ff06f          	j	200032b8 <_printf_i+0x264>
200032dc:	00a00713          	li	a4,10
200032e0:	eb5ff06f          	j	20003194 <_printf_i+0x140>
200032e4:	00042683          	lw	a3,0(s0)
200032e8:	00072783          	lw	a5,0(a4)
200032ec:	01442583          	lw	a1,20(s0)
200032f0:	0806f813          	andi	a6,a3,128
200032f4:	00478513          	addi	a0,a5,4
200032f8:	00080a63          	beqz	a6,2000330c <_printf_i+0x2b8>
200032fc:	00a72023          	sw	a0,0(a4)
20003300:	0007a783          	lw	a5,0(a5)
20003304:	00b7a023          	sw	a1,0(a5)
20003308:	0180006f          	j	20003320 <_printf_i+0x2cc>
2000330c:	00a72023          	sw	a0,0(a4)
20003310:	0406f693          	andi	a3,a3,64
20003314:	0007a783          	lw	a5,0(a5)
20003318:	fe0686e3          	beqz	a3,20003304 <_printf_i+0x2b0>
2000331c:	00b79023          	sh	a1,0(a5)
20003320:	00042823          	sw	zero,16(s0)
20003324:	00060913          	mv	s2,a2
20003328:	eedff06f          	j	20003214 <_printf_i+0x1c0>
2000332c:	00072783          	lw	a5,0(a4)
20003330:	00442603          	lw	a2,4(s0)
20003334:	00000593          	li	a1,0
20003338:	00478693          	addi	a3,a5,4
2000333c:	00d72023          	sw	a3,0(a4)
20003340:	0007a903          	lw	s2,0(a5)
20003344:	00090513          	mv	a0,s2
20003348:	621000ef          	jal	20004168 <memchr>
2000334c:	00050663          	beqz	a0,20003358 <_printf_i+0x304>
20003350:	41250533          	sub	a0,a0,s2
20003354:	00a42223          	sw	a0,4(s0)
20003358:	00442783          	lw	a5,4(s0)
2000335c:	00f42823          	sw	a5,16(s0)
20003360:	040401a3          	sb	zero,67(s0)
20003364:	eb1ff06f          	j	20003214 <_printf_i+0x1c0>
20003368:	01042683          	lw	a3,16(s0)
2000336c:	00090613          	mv	a2,s2
20003370:	000a8593          	mv	a1,s5
20003374:	000a0513          	mv	a0,s4
20003378:	000480e7          	jalr	s1
2000337c:	eb350ce3          	beq	a0,s3,20003234 <_printf_i+0x1e0>
20003380:	00042783          	lw	a5,0(s0)
20003384:	0027f793          	andi	a5,a5,2
20003388:	04079663          	bnez	a5,200033d4 <_printf_i+0x380>
2000338c:	01c12783          	lw	a5,28(sp)
20003390:	00c42503          	lw	a0,12(s0)
20003394:	eaf552e3          	bge	a0,a5,20003238 <_printf_i+0x1e4>
20003398:	00078513          	mv	a0,a5
2000339c:	e9dff06f          	j	20003238 <_printf_i+0x1e4>
200033a0:	00100693          	li	a3,1
200033a4:	000a8593          	mv	a1,s5
200033a8:	000a0513          	mv	a0,s4
200033ac:	00c12623          	sw	a2,12(sp)
200033b0:	000480e7          	jalr	s1
200033b4:	e93500e3          	beq	a0,s3,20003234 <_printf_i+0x1e0>
200033b8:	00c12603          	lw	a2,12(sp)
200033bc:	00190913          	addi	s2,s2,1
200033c0:	00c42783          	lw	a5,12(s0)
200033c4:	01c12703          	lw	a4,28(sp)
200033c8:	40e787b3          	sub	a5,a5,a4
200033cc:	fcf94ae3          	blt	s2,a5,200033a0 <_printf_i+0x34c>
200033d0:	fbdff06f          	j	2000338c <_printf_i+0x338>
200033d4:	00000913          	li	s2,0
200033d8:	01940613          	addi	a2,s0,25
200033dc:	fe5ff06f          	j	200033c0 <_printf_i+0x36c>

200033e0 <__sflush_r>:
200033e0:	00c59783          	lh	a5,12(a1)
200033e4:	fe010113          	addi	sp,sp,-32
200033e8:	00812c23          	sw	s0,24(sp)
200033ec:	00912a23          	sw	s1,20(sp)
200033f0:	00112e23          	sw	ra,28(sp)
200033f4:	01212823          	sw	s2,16(sp)
200033f8:	0087f713          	andi	a4,a5,8
200033fc:	00050493          	mv	s1,a0
20003400:	00058413          	mv	s0,a1
20003404:	12071263          	bnez	a4,20003528 <__sflush_r+0x148>
20003408:	0045a703          	lw	a4,4(a1)
2000340c:	00e04663          	bgtz	a4,20003418 <__sflush_r+0x38>
20003410:	0405a703          	lw	a4,64(a1)
20003414:	10e05663          	blez	a4,20003520 <__sflush_r+0x140>
20003418:	02c42703          	lw	a4,44(s0)
2000341c:	10070263          	beqz	a4,20003520 <__sflush_r+0x140>
20003420:	0004a903          	lw	s2,0(s1)
20003424:	01379693          	slli	a3,a5,0x13
20003428:	0004a023          	sw	zero,0(s1)
2000342c:	0a06dc63          	bgez	a3,200034e4 <__sflush_r+0x104>
20003430:	05442603          	lw	a2,84(s0)
20003434:	00c45783          	lhu	a5,12(s0)
20003438:	0047f793          	andi	a5,a5,4
2000343c:	00078e63          	beqz	a5,20003458 <__sflush_r+0x78>
20003440:	00442783          	lw	a5,4(s0)
20003444:	40f60633          	sub	a2,a2,a5
20003448:	03442783          	lw	a5,52(s0)
2000344c:	00078663          	beqz	a5,20003458 <__sflush_r+0x78>
20003450:	04042783          	lw	a5,64(s0)
20003454:	40f60633          	sub	a2,a2,a5
20003458:	02c42783          	lw	a5,44(s0)
2000345c:	02042583          	lw	a1,32(s0)
20003460:	00000693          	li	a3,0
20003464:	00048513          	mv	a0,s1
20003468:	000780e7          	jalr	a5
2000346c:	fff00713          	li	a4,-1
20003470:	00c41783          	lh	a5,12(s0)
20003474:	02e51263          	bne	a0,a4,20003498 <__sflush_r+0xb8>
20003478:	0004a683          	lw	a3,0(s1)
2000347c:	01d00713          	li	a4,29
20003480:	0ed76c63          	bltu	a4,a3,20003578 <__sflush_r+0x198>
20003484:	20400737          	lui	a4,0x20400
20003488:	00170713          	addi	a4,a4,1 # 20400001 <__stack_top+0x3fa58d>
2000348c:	00d75733          	srl	a4,a4,a3
20003490:	00177713          	andi	a4,a4,1
20003494:	0e070263          	beqz	a4,20003578 <__sflush_r+0x198>
20003498:	01042703          	lw	a4,16(s0)
2000349c:	00042223          	sw	zero,4(s0)
200034a0:	00e42023          	sw	a4,0(s0)
200034a4:	01379713          	slli	a4,a5,0x13
200034a8:	00075c63          	bgez	a4,200034c0 <__sflush_r+0xe0>
200034ac:	fff00793          	li	a5,-1
200034b0:	00f51663          	bne	a0,a5,200034bc <__sflush_r+0xdc>
200034b4:	0004a783          	lw	a5,0(s1)
200034b8:	00079463          	bnez	a5,200034c0 <__sflush_r+0xe0>
200034bc:	04a42a23          	sw	a0,84(s0)
200034c0:	03442583          	lw	a1,52(s0)
200034c4:	0124a023          	sw	s2,0(s1)
200034c8:	04058c63          	beqz	a1,20003520 <__sflush_r+0x140>
200034cc:	04440793          	addi	a5,s0,68
200034d0:	00f58663          	beq	a1,a5,200034dc <__sflush_r+0xfc>
200034d4:	00048513          	mv	a0,s1
200034d8:	9dcff0ef          	jal	200026b4 <_free_r>
200034dc:	02042a23          	sw	zero,52(s0)
200034e0:	0400006f          	j	20003520 <__sflush_r+0x140>
200034e4:	02042583          	lw	a1,32(s0)
200034e8:	00000613          	li	a2,0
200034ec:	00100693          	li	a3,1
200034f0:	00048513          	mv	a0,s1
200034f4:	000700e7          	jalr	a4
200034f8:	fff00793          	li	a5,-1
200034fc:	00050613          	mv	a2,a0
20003500:	f2f51ae3          	bne	a0,a5,20003434 <__sflush_r+0x54>
20003504:	0004a783          	lw	a5,0(s1)
20003508:	f20786e3          	beqz	a5,20003434 <__sflush_r+0x54>
2000350c:	fe378713          	addi	a4,a5,-29
20003510:	00070663          	beqz	a4,2000351c <__sflush_r+0x13c>
20003514:	fea78793          	addi	a5,a5,-22
20003518:	04079e63          	bnez	a5,20003574 <__sflush_r+0x194>
2000351c:	0124a023          	sw	s2,0(s1)
20003520:	00000513          	li	a0,0
20003524:	0600006f          	j	20003584 <__sflush_r+0x1a4>
20003528:	0105a603          	lw	a2,16(a1)
2000352c:	fe060ae3          	beqz	a2,20003520 <__sflush_r+0x140>
20003530:	0005a683          	lw	a3,0(a1)
20003534:	0037f793          	andi	a5,a5,3
20003538:	00c5a023          	sw	a2,0(a1)
2000353c:	40c68933          	sub	s2,a3,a2
20003540:	00000713          	li	a4,0
20003544:	00079463          	bnez	a5,2000354c <__sflush_r+0x16c>
20003548:	0145a703          	lw	a4,20(a1)
2000354c:	00e42423          	sw	a4,8(s0)
20003550:	fd2058e3          	blez	s2,20003520 <__sflush_r+0x140>
20003554:	02842783          	lw	a5,40(s0)
20003558:	02042583          	lw	a1,32(s0)
2000355c:	00090693          	mv	a3,s2
20003560:	00048513          	mv	a0,s1
20003564:	00c12623          	sw	a2,12(sp)
20003568:	000780e7          	jalr	a5
2000356c:	00c12603          	lw	a2,12(sp)
20003570:	02a04663          	bgtz	a0,2000359c <__sflush_r+0x1bc>
20003574:	00c45783          	lhu	a5,12(s0)
20003578:	0407e793          	ori	a5,a5,64
2000357c:	00f41623          	sh	a5,12(s0)
20003580:	fff00513          	li	a0,-1
20003584:	01c12083          	lw	ra,28(sp)
20003588:	01812403          	lw	s0,24(sp)
2000358c:	01412483          	lw	s1,20(sp)
20003590:	01012903          	lw	s2,16(sp)
20003594:	02010113          	addi	sp,sp,32
20003598:	00008067          	ret
2000359c:	00a60633          	add	a2,a2,a0
200035a0:	40a90933          	sub	s2,s2,a0
200035a4:	fadff06f          	j	20003550 <__sflush_r+0x170>

200035a8 <_fflush_r>:
200035a8:	0105a783          	lw	a5,16(a1)
200035ac:	04078e63          	beqz	a5,20003608 <_fflush_r+0x60>
200035b0:	fe010113          	addi	sp,sp,-32
200035b4:	00812c23          	sw	s0,24(sp)
200035b8:	00112e23          	sw	ra,28(sp)
200035bc:	00050413          	mv	s0,a0
200035c0:	00050c63          	beqz	a0,200035d8 <_fflush_r+0x30>
200035c4:	02052783          	lw	a5,32(a0)
200035c8:	00079863          	bnez	a5,200035d8 <_fflush_r+0x30>
200035cc:	00b12623          	sw	a1,12(sp)
200035d0:	2fc000ef          	jal	200038cc <__sinit>
200035d4:	00c12583          	lw	a1,12(sp)
200035d8:	00c59783          	lh	a5,12(a1)
200035dc:	00078c63          	beqz	a5,200035f4 <_fflush_r+0x4c>
200035e0:	00040513          	mv	a0,s0
200035e4:	01812403          	lw	s0,24(sp)
200035e8:	01c12083          	lw	ra,28(sp)
200035ec:	02010113          	addi	sp,sp,32
200035f0:	df1ff06f          	j	200033e0 <__sflush_r>
200035f4:	01c12083          	lw	ra,28(sp)
200035f8:	01812403          	lw	s0,24(sp)
200035fc:	00000513          	li	a0,0
20003600:	02010113          	addi	sp,sp,32
20003604:	00008067          	ret
20003608:	00000513          	li	a0,0
2000360c:	00008067          	ret

20003610 <fflush>:
20003610:	00050593          	mv	a1,a0
20003614:	02051063          	bnez	a0,20003634 <fflush+0x24>
20003618:	20005637          	lui	a2,0x20005
2000361c:	200035b7          	lui	a1,0x20003
20003620:	20005537          	lui	a0,0x20005
20003624:	ce460613          	addi	a2,a2,-796 # 20004ce4 <__sglue>
20003628:	5a858593          	addi	a1,a1,1448 # 200035a8 <_fflush_r>
2000362c:	c9850513          	addi	a0,a0,-872 # 20004c98 <_impure_data>
20003630:	75c0006f          	j	20003d8c <_fwalk_sglue>
20003634:	200057b7          	lui	a5,0x20005
20003638:	cf07a503          	lw	a0,-784(a5) # 20004cf0 <_impure_ptr>
2000363c:	f6dff06f          	j	200035a8 <_fflush_r>

20003640 <__fp_lock>:
20003640:	00000513          	li	a0,0
20003644:	00008067          	ret

20003648 <std>:
20003648:	ff010113          	addi	sp,sp,-16
2000364c:	00812423          	sw	s0,8(sp)
20003650:	00112623          	sw	ra,12(sp)
20003654:	00050413          	mv	s0,a0
20003658:	00b51623          	sh	a1,12(a0)
2000365c:	00c51723          	sh	a2,14(a0)
20003660:	00052023          	sw	zero,0(a0)
20003664:	00052223          	sw	zero,4(a0)
20003668:	00052423          	sw	zero,8(a0)
2000366c:	06052223          	sw	zero,100(a0)
20003670:	00052823          	sw	zero,16(a0)
20003674:	00052a23          	sw	zero,20(a0)
20003678:	00052c23          	sw	zero,24(a0)
2000367c:	00800613          	li	a2,8
20003680:	00000593          	li	a1,0
20003684:	05c50513          	addi	a0,a0,92
20003688:	6ed000ef          	jal	20004574 <memset>
2000368c:	200047b7          	lui	a5,0x20004
20003690:	02c78793          	addi	a5,a5,44 # 2000402c <__sread>
20003694:	02f42223          	sw	a5,36(s0)
20003698:	200047b7          	lui	a5,0x20004
2000369c:	08478793          	addi	a5,a5,132 # 20004084 <__swrite>
200036a0:	02f42423          	sw	a5,40(s0)
200036a4:	200047b7          	lui	a5,0x20004
200036a8:	10878793          	addi	a5,a5,264 # 20004108 <__sseek>
200036ac:	02f42623          	sw	a5,44(s0)
200036b0:	200047b7          	lui	a5,0x20004
200036b4:	16078793          	addi	a5,a5,352 # 20004160 <__sclose>
200036b8:	00c12083          	lw	ra,12(sp)
200036bc:	02842023          	sw	s0,32(s0)
200036c0:	02f42823          	sw	a5,48(s0)
200036c4:	00812403          	lw	s0,8(sp)
200036c8:	01010113          	addi	sp,sp,16
200036cc:	00008067          	ret

200036d0 <stdio_exit_handler>:
200036d0:	20005637          	lui	a2,0x20005
200036d4:	200035b7          	lui	a1,0x20003
200036d8:	20005537          	lui	a0,0x20005
200036dc:	ce460613          	addi	a2,a2,-796 # 20004ce4 <__sglue>
200036e0:	5a858593          	addi	a1,a1,1448 # 200035a8 <_fflush_r>
200036e4:	c9850513          	addi	a0,a0,-872 # 20004c98 <_impure_data>
200036e8:	6a40006f          	j	20003d8c <_fwalk_sglue>

200036ec <cleanup_stdio>:
200036ec:	00452583          	lw	a1,4(a0)
200036f0:	ff010113          	addi	sp,sp,-16
200036f4:	200057b7          	lui	a5,0x20005
200036f8:	00812423          	sw	s0,8(sp)
200036fc:	00112623          	sw	ra,12(sp)
20003700:	d0478793          	addi	a5,a5,-764 # 20004d04 <__sf>
20003704:	00050413          	mv	s0,a0
20003708:	00f58463          	beq	a1,a5,20003710 <cleanup_stdio+0x24>
2000370c:	e9dff0ef          	jal	200035a8 <_fflush_r>
20003710:	00842583          	lw	a1,8(s0)
20003714:	200057b7          	lui	a5,0x20005
20003718:	d6c78793          	addi	a5,a5,-660 # 20004d6c <__sf+0x68>
2000371c:	00f58663          	beq	a1,a5,20003728 <cleanup_stdio+0x3c>
20003720:	00040513          	mv	a0,s0
20003724:	e85ff0ef          	jal	200035a8 <_fflush_r>
20003728:	00c42583          	lw	a1,12(s0)
2000372c:	200057b7          	lui	a5,0x20005
20003730:	dd478793          	addi	a5,a5,-556 # 20004dd4 <__sf+0xd0>
20003734:	00f58c63          	beq	a1,a5,2000374c <cleanup_stdio+0x60>
20003738:	00040513          	mv	a0,s0
2000373c:	00812403          	lw	s0,8(sp)
20003740:	00c12083          	lw	ra,12(sp)
20003744:	01010113          	addi	sp,sp,16
20003748:	e61ff06f          	j	200035a8 <_fflush_r>
2000374c:	00c12083          	lw	ra,12(sp)
20003750:	00812403          	lw	s0,8(sp)
20003754:	01010113          	addi	sp,sp,16
20003758:	00008067          	ret

2000375c <global_stdio_init.part.0>:
2000375c:	200037b7          	lui	a5,0x20003
20003760:	20005537          	lui	a0,0x20005
20003764:	ff010113          	addi	sp,sp,-16
20003768:	20005737          	lui	a4,0x20005
2000376c:	6d078793          	addi	a5,a5,1744 # 200036d0 <stdio_exit_handler>
20003770:	00000613          	li	a2,0
20003774:	00400593          	li	a1,4
20003778:	d0450513          	addi	a0,a0,-764 # 20004d04 <__sf>
2000377c:	00112623          	sw	ra,12(sp)
20003780:	e6f72623          	sw	a5,-404(a4) # 20004e6c <__stdio_exit_handler>
20003784:	ec5ff0ef          	jal	20003648 <std>
20003788:	20005537          	lui	a0,0x20005
2000378c:	00100613          	li	a2,1
20003790:	00900593          	li	a1,9
20003794:	d6c50513          	addi	a0,a0,-660 # 20004d6c <__sf+0x68>
20003798:	eb1ff0ef          	jal	20003648 <std>
2000379c:	00c12083          	lw	ra,12(sp)
200037a0:	20005537          	lui	a0,0x20005
200037a4:	00200613          	li	a2,2
200037a8:	01200593          	li	a1,18
200037ac:	dd450513          	addi	a0,a0,-556 # 20004dd4 <__sf+0xd0>
200037b0:	01010113          	addi	sp,sp,16
200037b4:	e95ff06f          	j	20003648 <std>

200037b8 <__fp_unlock>:
200037b8:	00000513          	li	a0,0
200037bc:	00008067          	ret

200037c0 <__sfp>:
200037c0:	200057b7          	lui	a5,0x20005
200037c4:	e6c7a783          	lw	a5,-404(a5) # 20004e6c <__stdio_exit_handler>
200037c8:	ff010113          	addi	sp,sp,-16
200037cc:	01212023          	sw	s2,0(sp)
200037d0:	00112623          	sw	ra,12(sp)
200037d4:	00812423          	sw	s0,8(sp)
200037d8:	00912223          	sw	s1,4(sp)
200037dc:	00050913          	mv	s2,a0
200037e0:	00079463          	bnez	a5,200037e8 <__sfp+0x28>
200037e4:	f79ff0ef          	jal	2000375c <global_stdio_init.part.0>
200037e8:	200054b7          	lui	s1,0x20005
200037ec:	ce448493          	addi	s1,s1,-796 # 20004ce4 <__sglue>
200037f0:	0084a403          	lw	s0,8(s1)
200037f4:	0044a783          	lw	a5,4(s1)
200037f8:	fff78793          	addi	a5,a5,-1
200037fc:	0207d863          	bgez	a5,2000382c <__sfp+0x6c>
20003800:	0004a403          	lw	s0,0(s1)
20003804:	0c041063          	bnez	s0,200038c4 <__sfp+0x104>
20003808:	1ac00593          	li	a1,428
2000380c:	00090513          	mv	a0,s2
20003810:	848ff0ef          	jal	20002858 <_malloc_r>
20003814:	00050413          	mv	s0,a0
20003818:	08051463          	bnez	a0,200038a0 <__sfp+0xe0>
2000381c:	0004a023          	sw	zero,0(s1)
20003820:	00c00793          	li	a5,12
20003824:	00f92023          	sw	a5,0(s2)
20003828:	0540006f          	j	2000387c <__sfp+0xbc>
2000382c:	00c41703          	lh	a4,12(s0)
20003830:	06071463          	bnez	a4,20003898 <__sfp+0xd8>
20003834:	ffff07b7          	lui	a5,0xffff0
20003838:	00178793          	addi	a5,a5,1 # ffff0001 <__stack_top+0xdffea58d>
2000383c:	06042223          	sw	zero,100(s0)
20003840:	00042023          	sw	zero,0(s0)
20003844:	00042223          	sw	zero,4(s0)
20003848:	00042423          	sw	zero,8(s0)
2000384c:	00f42623          	sw	a5,12(s0)
20003850:	00042823          	sw	zero,16(s0)
20003854:	00042a23          	sw	zero,20(s0)
20003858:	00042c23          	sw	zero,24(s0)
2000385c:	00800613          	li	a2,8
20003860:	00000593          	li	a1,0
20003864:	05c40513          	addi	a0,s0,92
20003868:	50d000ef          	jal	20004574 <memset>
2000386c:	02042a23          	sw	zero,52(s0)
20003870:	02042c23          	sw	zero,56(s0)
20003874:	04042423          	sw	zero,72(s0)
20003878:	04042623          	sw	zero,76(s0)
2000387c:	00c12083          	lw	ra,12(sp)
20003880:	00040513          	mv	a0,s0
20003884:	00812403          	lw	s0,8(sp)
20003888:	00412483          	lw	s1,4(sp)
2000388c:	00012903          	lw	s2,0(sp)
20003890:	01010113          	addi	sp,sp,16
20003894:	00008067          	ret
20003898:	06840413          	addi	s0,s0,104
2000389c:	f5dff06f          	j	200037f8 <__sfp+0x38>
200038a0:	00400793          	li	a5,4
200038a4:	00052023          	sw	zero,0(a0)
200038a8:	00f52223          	sw	a5,4(a0)
200038ac:	00c50513          	addi	a0,a0,12
200038b0:	00a42423          	sw	a0,8(s0)
200038b4:	1a000613          	li	a2,416
200038b8:	00000593          	li	a1,0
200038bc:	4b9000ef          	jal	20004574 <memset>
200038c0:	0084a023          	sw	s0,0(s1)
200038c4:	00040493          	mv	s1,s0
200038c8:	f29ff06f          	j	200037f0 <__sfp+0x30>

200038cc <__sinit>:
200038cc:	02052783          	lw	a5,32(a0)
200038d0:	02079063          	bnez	a5,200038f0 <__sinit+0x24>
200038d4:	200037b7          	lui	a5,0x20003
200038d8:	6ec78793          	addi	a5,a5,1772 # 200036ec <cleanup_stdio>
200038dc:	02f52023          	sw	a5,32(a0)
200038e0:	200057b7          	lui	a5,0x20005
200038e4:	e6c7a783          	lw	a5,-404(a5) # 20004e6c <__stdio_exit_handler>
200038e8:	00079463          	bnez	a5,200038f0 <__sinit+0x24>
200038ec:	e71ff06f          	j	2000375c <global_stdio_init.part.0>
200038f0:	00008067          	ret

200038f4 <__sfp_lock_acquire>:
200038f4:	00008067          	ret

200038f8 <__sfp_lock_release>:
200038f8:	00008067          	ret

200038fc <__fp_lock_all>:
200038fc:	20005637          	lui	a2,0x20005
20003900:	200035b7          	lui	a1,0x20003
20003904:	ce460613          	addi	a2,a2,-796 # 20004ce4 <__sglue>
20003908:	64058593          	addi	a1,a1,1600 # 20003640 <__fp_lock>
2000390c:	00000513          	li	a0,0
20003910:	47c0006f          	j	20003d8c <_fwalk_sglue>

20003914 <__fp_unlock_all>:
20003914:	20005637          	lui	a2,0x20005
20003918:	200035b7          	lui	a1,0x20003
2000391c:	ce460613          	addi	a2,a2,-796 # 20004ce4 <__sglue>
20003920:	7b858593          	addi	a1,a1,1976 # 200037b8 <__fp_unlock>
20003924:	00000513          	li	a0,0
20003928:	4640006f          	j	20003d8c <_fwalk_sglue>

2000392c <__sfvwrite_r>:
2000392c:	00862783          	lw	a5,8(a2)
20003930:	04079663          	bnez	a5,2000397c <__sfvwrite_r+0x50>
20003934:	00000513          	li	a0,0
20003938:	00008067          	ret
2000393c:	00000513          	li	a0,0
20003940:	03c12083          	lw	ra,60(sp)
20003944:	03812403          	lw	s0,56(sp)
20003948:	03412483          	lw	s1,52(sp)
2000394c:	03012903          	lw	s2,48(sp)
20003950:	02c12983          	lw	s3,44(sp)
20003954:	02812a03          	lw	s4,40(sp)
20003958:	02412a83          	lw	s5,36(sp)
2000395c:	02012b03          	lw	s6,32(sp)
20003960:	01c12b83          	lw	s7,28(sp)
20003964:	01812c03          	lw	s8,24(sp)
20003968:	01412c83          	lw	s9,20(sp)
2000396c:	01012d03          	lw	s10,16(sp)
20003970:	00c12d83          	lw	s11,12(sp)
20003974:	04010113          	addi	sp,sp,64
20003978:	00008067          	ret
2000397c:	00c5d783          	lhu	a5,12(a1)
20003980:	fc010113          	addi	sp,sp,-64
20003984:	02812c23          	sw	s0,56(sp)
20003988:	03312623          	sw	s3,44(sp)
2000398c:	03512223          	sw	s5,36(sp)
20003990:	02112e23          	sw	ra,60(sp)
20003994:	02912a23          	sw	s1,52(sp)
20003998:	03212823          	sw	s2,48(sp)
2000399c:	03412423          	sw	s4,40(sp)
200039a0:	03612023          	sw	s6,32(sp)
200039a4:	01712e23          	sw	s7,28(sp)
200039a8:	01812c23          	sw	s8,24(sp)
200039ac:	01912a23          	sw	s9,20(sp)
200039b0:	01a12823          	sw	s10,16(sp)
200039b4:	01b12623          	sw	s11,12(sp)
200039b8:	0087f793          	andi	a5,a5,8
200039bc:	00060a93          	mv	s5,a2
200039c0:	00058413          	mv	s0,a1
200039c4:	00050993          	mv	s3,a0
200039c8:	0e078263          	beqz	a5,20003aac <__sfvwrite_r+0x180>
200039cc:	0105a783          	lw	a5,16(a1)
200039d0:	0c078e63          	beqz	a5,20003aac <__sfvwrite_r+0x180>
200039d4:	00c41783          	lh	a5,12(s0)
200039d8:	000aaa03          	lw	s4,0(s5)
200039dc:	0027f713          	andi	a4,a5,2
200039e0:	12071c63          	bnez	a4,20003b18 <__sfvwrite_r+0x1ec>
200039e4:	0017f793          	andi	a5,a5,1
200039e8:	1c078c63          	beqz	a5,20003bc0 <__sfvwrite_r+0x294>
200039ec:	00000b93          	li	s7,0
200039f0:	00000513          	li	a0,0
200039f4:	00000b13          	li	s6,0
200039f8:	00000913          	li	s2,0
200039fc:	32090663          	beqz	s2,20003d28 <__sfvwrite_r+0x3fc>
20003a00:	02051263          	bnez	a0,20003a24 <__sfvwrite_r+0xf8>
20003a04:	00090613          	mv	a2,s2
20003a08:	00a00593          	li	a1,10
20003a0c:	000b0513          	mv	a0,s6
20003a10:	758000ef          	jal	20004168 <memchr>
20003a14:	00190b93          	addi	s7,s2,1
20003a18:	00050663          	beqz	a0,20003a24 <__sfvwrite_r+0xf8>
20003a1c:	00150513          	addi	a0,a0,1
20003a20:	41650bb3          	sub	s7,a0,s6
20003a24:	000b8c13          	mv	s8,s7
20003a28:	01797463          	bgeu	s2,s7,20003a30 <__sfvwrite_r+0x104>
20003a2c:	00090c13          	mv	s8,s2
20003a30:	01442683          	lw	a3,20(s0)
20003a34:	00842483          	lw	s1,8(s0)
20003a38:	00042503          	lw	a0,0(s0)
20003a3c:	01042783          	lw	a5,16(s0)
20003a40:	009684b3          	add	s1,a3,s1
20003a44:	2ea7fc63          	bgeu	a5,a0,20003d3c <__sfvwrite_r+0x410>
20003a48:	2f84da63          	bge	s1,s8,20003d3c <__sfvwrite_r+0x410>
20003a4c:	000b0593          	mv	a1,s6
20003a50:	00048613          	mv	a2,s1
20003a54:	2e5000ef          	jal	20004538 <memmove>
20003a58:	00042783          	lw	a5,0(s0)
20003a5c:	00040593          	mv	a1,s0
20003a60:	00098513          	mv	a0,s3
20003a64:	009787b3          	add	a5,a5,s1
20003a68:	00f42023          	sw	a5,0(s0)
20003a6c:	b3dff0ef          	jal	200035a8 <_fflush_r>
20003a70:	14051063          	bnez	a0,20003bb0 <__sfvwrite_r+0x284>
20003a74:	409b8bb3          	sub	s7,s7,s1
20003a78:	00100513          	li	a0,1
20003a7c:	000b9a63          	bnez	s7,20003a90 <__sfvwrite_r+0x164>
20003a80:	00040593          	mv	a1,s0
20003a84:	00098513          	mv	a0,s3
20003a88:	b21ff0ef          	jal	200035a8 <_fflush_r>
20003a8c:	12051263          	bnez	a0,20003bb0 <__sfvwrite_r+0x284>
20003a90:	008aa783          	lw	a5,8(s5)
20003a94:	409787b3          	sub	a5,a5,s1
20003a98:	00faa423          	sw	a5,8(s5)
20003a9c:	ea0780e3          	beqz	a5,2000393c <__sfvwrite_r+0x10>
20003aa0:	009b0b33          	add	s6,s6,s1
20003aa4:	40990933          	sub	s2,s2,s1
20003aa8:	f55ff06f          	j	200039fc <__sfvwrite_r+0xd0>
20003aac:	00040593          	mv	a1,s0
20003ab0:	00098513          	mv	a0,s3
20003ab4:	ad9fe0ef          	jal	2000258c <__swsetup_r>
20003ab8:	f0050ee3          	beqz	a0,200039d4 <__sfvwrite_r+0xa8>
20003abc:	fff00513          	li	a0,-1
20003ac0:	e81ff06f          	j	20003940 <__sfvwrite_r+0x14>
20003ac4:	000a2903          	lw	s2,0(s4)
20003ac8:	004a2483          	lw	s1,4(s4)
20003acc:	008a0a13          	addi	s4,s4,8
20003ad0:	fe048ae3          	beqz	s1,20003ac4 <__sfvwrite_r+0x198>
20003ad4:	00048693          	mv	a3,s1
20003ad8:	009b7663          	bgeu	s6,s1,20003ae4 <__sfvwrite_r+0x1b8>
20003adc:	800006b7          	lui	a3,0x80000
20003ae0:	c0068693          	addi	a3,a3,-1024 # 7ffffc00 <__stack_top+0x5fffa18c>
20003ae4:	02842783          	lw	a5,40(s0)
20003ae8:	02042583          	lw	a1,32(s0)
20003aec:	00090613          	mv	a2,s2
20003af0:	00098513          	mv	a0,s3
20003af4:	000780e7          	jalr	a5
20003af8:	0aa05c63          	blez	a0,20003bb0 <__sfvwrite_r+0x284>
20003afc:	008aa783          	lw	a5,8(s5)
20003b00:	40a787b3          	sub	a5,a5,a0
20003b04:	00faa423          	sw	a5,8(s5)
20003b08:	e2078ae3          	beqz	a5,2000393c <__sfvwrite_r+0x10>
20003b0c:	00a90933          	add	s2,s2,a0
20003b10:	40a484b3          	sub	s1,s1,a0
20003b14:	fbdff06f          	j	20003ad0 <__sfvwrite_r+0x1a4>
20003b18:	80000b37          	lui	s6,0x80000
20003b1c:	00000913          	li	s2,0
20003b20:	00000493          	li	s1,0
20003b24:	c00b0b13          	addi	s6,s6,-1024 # 7ffffc00 <__stack_top+0x5fffa18c>
20003b28:	fa9ff06f          	j	20003ad0 <__sfvwrite_r+0x1a4>
20003b2c:	000a2b03          	lw	s6,0(s4)
20003b30:	004a2483          	lw	s1,4(s4)
20003b34:	008a0a13          	addi	s4,s4,8
20003b38:	fe048ae3          	beqz	s1,20003b2c <__sfvwrite_r+0x200>
20003b3c:	00c41783          	lh	a5,12(s0)
20003b40:	00842d03          	lw	s10,8(s0)
20003b44:	00042503          	lw	a0,0(s0)
20003b48:	2007f713          	andi	a4,a5,512
20003b4c:	14070863          	beqz	a4,20003c9c <__sfvwrite_r+0x370>
20003b50:	000d0d93          	mv	s11,s10
20003b54:	13a4ec63          	bltu	s1,s10,20003c8c <__sfvwrite_r+0x360>
20003b58:	4807f713          	andi	a4,a5,1152
20003b5c:	12070c63          	beqz	a4,20003c94 <__sfvwrite_r+0x368>
20003b60:	01442903          	lw	s2,20(s0)
20003b64:	01042583          	lw	a1,16(s0)
20003b68:	03890933          	mul	s2,s2,s8
20003b6c:	40b50db3          	sub	s11,a0,a1
20003b70:	001d8713          	addi	a4,s11,1
20003b74:	00970733          	add	a4,a4,s1
20003b78:	03994933          	div	s2,s2,s9
20003b7c:	00090613          	mv	a2,s2
20003b80:	00e97663          	bgeu	s2,a4,20003b8c <__sfvwrite_r+0x260>
20003b84:	00070913          	mv	s2,a4
20003b88:	00070613          	mv	a2,a4
20003b8c:	4007f793          	andi	a5,a5,1024
20003b90:	0c078863          	beqz	a5,20003c60 <__sfvwrite_r+0x334>
20003b94:	00060593          	mv	a1,a2
20003b98:	00098513          	mv	a0,s3
20003b9c:	cbdfe0ef          	jal	20002858 <_malloc_r>
20003ba0:	00050d13          	mv	s10,a0
20003ba4:	02051c63          	bnez	a0,20003bdc <__sfvwrite_r+0x2b0>
20003ba8:	00c00793          	li	a5,12
20003bac:	00f9a023          	sw	a5,0(s3)
20003bb0:	00c45783          	lhu	a5,12(s0)
20003bb4:	0407e793          	ori	a5,a5,64
20003bb8:	00f41623          	sh	a5,12(s0)
20003bbc:	f01ff06f          	j	20003abc <__sfvwrite_r+0x190>
20003bc0:	80000bb7          	lui	s7,0x80000
20003bc4:	00000b13          	li	s6,0
20003bc8:	00000493          	li	s1,0
20003bcc:	fffb8b93          	addi	s7,s7,-1 # 7fffffff <__stack_top+0x5fffa58b>
20003bd0:	00300c13          	li	s8,3
20003bd4:	00200c93          	li	s9,2
20003bd8:	f61ff06f          	j	20003b38 <__sfvwrite_r+0x20c>
20003bdc:	01042583          	lw	a1,16(s0)
20003be0:	000d8613          	mv	a2,s11
20003be4:	1ad000ef          	jal	20004590 <memcpy>
20003be8:	00c45783          	lhu	a5,12(s0)
20003bec:	b7f7f793          	andi	a5,a5,-1153
20003bf0:	0807e793          	ori	a5,a5,128
20003bf4:	00f41623          	sh	a5,12(s0)
20003bf8:	01a42823          	sw	s10,16(s0)
20003bfc:	01242a23          	sw	s2,20(s0)
20003c00:	01bd0d33          	add	s10,s10,s11
20003c04:	41b90933          	sub	s2,s2,s11
20003c08:	01a42023          	sw	s10,0(s0)
20003c0c:	01242423          	sw	s2,8(s0)
20003c10:	00048d13          	mv	s10,s1
20003c14:	00048913          	mv	s2,s1
20003c18:	00048d93          	mv	s11,s1
20003c1c:	00042503          	lw	a0,0(s0)
20003c20:	000d8613          	mv	a2,s11
20003c24:	000b0593          	mv	a1,s6
20003c28:	111000ef          	jal	20004538 <memmove>
20003c2c:	00842783          	lw	a5,8(s0)
20003c30:	41a787b3          	sub	a5,a5,s10
20003c34:	00f42423          	sw	a5,8(s0)
20003c38:	00042783          	lw	a5,0(s0)
20003c3c:	01b787b3          	add	a5,a5,s11
20003c40:	00f42023          	sw	a5,0(s0)
20003c44:	008aa783          	lw	a5,8(s5)
20003c48:	412787b3          	sub	a5,a5,s2
20003c4c:	00faa423          	sw	a5,8(s5)
20003c50:	ce0786e3          	beqz	a5,2000393c <__sfvwrite_r+0x10>
20003c54:	012b0b33          	add	s6,s6,s2
20003c58:	412484b3          	sub	s1,s1,s2
20003c5c:	eddff06f          	j	20003b38 <__sfvwrite_r+0x20c>
20003c60:	00098513          	mv	a0,s3
20003c64:	151000ef          	jal	200045b4 <_realloc_r>
20003c68:	00050d13          	mv	s10,a0
20003c6c:	f80516e3          	bnez	a0,20003bf8 <__sfvwrite_r+0x2cc>
20003c70:	01042583          	lw	a1,16(s0)
20003c74:	00098513          	mv	a0,s3
20003c78:	a3dfe0ef          	jal	200026b4 <_free_r>
20003c7c:	00c45783          	lhu	a5,12(s0)
20003c80:	f7f7f793          	andi	a5,a5,-129
20003c84:	00f41623          	sh	a5,12(s0)
20003c88:	f21ff06f          	j	20003ba8 <__sfvwrite_r+0x27c>
20003c8c:	00048d13          	mv	s10,s1
20003c90:	f85ff06f          	j	20003c14 <__sfvwrite_r+0x2e8>
20003c94:	00048913          	mv	s2,s1
20003c98:	f85ff06f          	j	20003c1c <__sfvwrite_r+0x2f0>
20003c9c:	01042783          	lw	a5,16(s0)
20003ca0:	00a7e663          	bltu	a5,a0,20003cac <__sfvwrite_r+0x380>
20003ca4:	01442683          	lw	a3,20(s0)
20003ca8:	04d4f663          	bgeu	s1,a3,20003cf4 <__sfvwrite_r+0x3c8>
20003cac:	000d0913          	mv	s2,s10
20003cb0:	01a4f463          	bgeu	s1,s10,20003cb8 <__sfvwrite_r+0x38c>
20003cb4:	00048913          	mv	s2,s1
20003cb8:	00090613          	mv	a2,s2
20003cbc:	000b0593          	mv	a1,s6
20003cc0:	079000ef          	jal	20004538 <memmove>
20003cc4:	00842783          	lw	a5,8(s0)
20003cc8:	00042703          	lw	a4,0(s0)
20003ccc:	412787b3          	sub	a5,a5,s2
20003cd0:	01270733          	add	a4,a4,s2
20003cd4:	00f42423          	sw	a5,8(s0)
20003cd8:	00e42023          	sw	a4,0(s0)
20003cdc:	f60794e3          	bnez	a5,20003c44 <__sfvwrite_r+0x318>
20003ce0:	00040593          	mv	a1,s0
20003ce4:	00098513          	mv	a0,s3
20003ce8:	8c1ff0ef          	jal	200035a8 <_fflush_r>
20003cec:	f4050ce3          	beqz	a0,20003c44 <__sfvwrite_r+0x318>
20003cf0:	ec1ff06f          	j	20003bb0 <__sfvwrite_r+0x284>
20003cf4:	00048793          	mv	a5,s1
20003cf8:	009bf463          	bgeu	s7,s1,20003d00 <__sfvwrite_r+0x3d4>
20003cfc:	000b8793          	mv	a5,s7
20003d00:	02d7c7b3          	div	a5,a5,a3
20003d04:	02842703          	lw	a4,40(s0)
20003d08:	02042583          	lw	a1,32(s0)
20003d0c:	000b0613          	mv	a2,s6
20003d10:	00098513          	mv	a0,s3
20003d14:	02d786b3          	mul	a3,a5,a3
20003d18:	000700e7          	jalr	a4
20003d1c:	00050913          	mv	s2,a0
20003d20:	f2a042e3          	bgtz	a0,20003c44 <__sfvwrite_r+0x318>
20003d24:	e8dff06f          	j	20003bb0 <__sfvwrite_r+0x284>
20003d28:	000a2b03          	lw	s6,0(s4)
20003d2c:	004a2903          	lw	s2,4(s4)
20003d30:	00000513          	li	a0,0
20003d34:	008a0a13          	addi	s4,s4,8
20003d38:	cc5ff06f          	j	200039fc <__sfvwrite_r+0xd0>
20003d3c:	02dc4263          	blt	s8,a3,20003d60 <__sfvwrite_r+0x434>
20003d40:	02842783          	lw	a5,40(s0)
20003d44:	02042583          	lw	a1,32(s0)
20003d48:	000b0613          	mv	a2,s6
20003d4c:	00098513          	mv	a0,s3
20003d50:	000780e7          	jalr	a5
20003d54:	00050493          	mv	s1,a0
20003d58:	d0a04ee3          	bgtz	a0,20003a74 <__sfvwrite_r+0x148>
20003d5c:	e55ff06f          	j	20003bb0 <__sfvwrite_r+0x284>
20003d60:	000c0613          	mv	a2,s8
20003d64:	000b0593          	mv	a1,s6
20003d68:	7d0000ef          	jal	20004538 <memmove>
20003d6c:	00842783          	lw	a5,8(s0)
20003d70:	000c0493          	mv	s1,s8
20003d74:	418787b3          	sub	a5,a5,s8
20003d78:	00f42423          	sw	a5,8(s0)
20003d7c:	00042783          	lw	a5,0(s0)
20003d80:	018787b3          	add	a5,a5,s8
20003d84:	00f42023          	sw	a5,0(s0)
20003d88:	cedff06f          	j	20003a74 <__sfvwrite_r+0x148>

20003d8c <_fwalk_sglue>:
20003d8c:	fd010113          	addi	sp,sp,-48
20003d90:	02812423          	sw	s0,40(sp)
20003d94:	03212023          	sw	s2,32(sp)
20003d98:	01312e23          	sw	s3,28(sp)
20003d9c:	01412c23          	sw	s4,24(sp)
20003da0:	01512a23          	sw	s5,20(sp)
20003da4:	02112623          	sw	ra,44(sp)
20003da8:	02912223          	sw	s1,36(sp)
20003dac:	00050a13          	mv	s4,a0
20003db0:	00058a93          	mv	s5,a1
20003db4:	00000413          	li	s0,0
20003db8:	00100913          	li	s2,1
20003dbc:	fff00993          	li	s3,-1
20003dc0:	00862583          	lw	a1,8(a2)
20003dc4:	00462483          	lw	s1,4(a2)
20003dc8:	fff48493          	addi	s1,s1,-1
20003dcc:	0204da63          	bgez	s1,20003e00 <_fwalk_sglue+0x74>
20003dd0:	00062603          	lw	a2,0(a2)
20003dd4:	fe0616e3          	bnez	a2,20003dc0 <_fwalk_sglue+0x34>
20003dd8:	02c12083          	lw	ra,44(sp)
20003ddc:	00040513          	mv	a0,s0
20003de0:	02812403          	lw	s0,40(sp)
20003de4:	02412483          	lw	s1,36(sp)
20003de8:	02012903          	lw	s2,32(sp)
20003dec:	01c12983          	lw	s3,28(sp)
20003df0:	01812a03          	lw	s4,24(sp)
20003df4:	01412a83          	lw	s5,20(sp)
20003df8:	03010113          	addi	sp,sp,48
20003dfc:	00008067          	ret
20003e00:	00c5d783          	lhu	a5,12(a1)
20003e04:	02f97463          	bgeu	s2,a5,20003e2c <_fwalk_sglue+0xa0>
20003e08:	00e59783          	lh	a5,14(a1)
20003e0c:	03378063          	beq	a5,s3,20003e2c <_fwalk_sglue+0xa0>
20003e10:	000a0513          	mv	a0,s4
20003e14:	00c12623          	sw	a2,12(sp)
20003e18:	00b12423          	sw	a1,8(sp)
20003e1c:	000a80e7          	jalr	s5
20003e20:	00c12603          	lw	a2,12(sp)
20003e24:	00812583          	lw	a1,8(sp)
20003e28:	00a46433          	or	s0,s0,a0
20003e2c:	06858593          	addi	a1,a1,104
20003e30:	f99ff06f          	j	20003dc8 <_fwalk_sglue+0x3c>

20003e34 <__swhatbuf_r>:
20003e34:	f8010113          	addi	sp,sp,-128
20003e38:	06812c23          	sw	s0,120(sp)
20003e3c:	00058413          	mv	s0,a1
20003e40:	00e59583          	lh	a1,14(a1)
20003e44:	06912a23          	sw	s1,116(sp)
20003e48:	06112e23          	sw	ra,124(sp)
20003e4c:	00060493          	mv	s1,a2
20003e50:	0205da63          	bgez	a1,20003e84 <__swhatbuf_r+0x50>
20003e54:	00c45783          	lhu	a5,12(s0)
20003e58:	0807f793          	andi	a5,a5,128
20003e5c:	04079c63          	bnez	a5,20003eb4 <__swhatbuf_r+0x80>
20003e60:	40000713          	li	a4,1024
20003e64:	07c12083          	lw	ra,124(sp)
20003e68:	07812403          	lw	s0,120(sp)
20003e6c:	00f6a023          	sw	a5,0(a3)
20003e70:	00e4a023          	sw	a4,0(s1)
20003e74:	00000513          	li	a0,0
20003e78:	07412483          	lw	s1,116(sp)
20003e7c:	08010113          	addi	sp,sp,128
20003e80:	00008067          	ret
20003e84:	01810613          	addi	a2,sp,24
20003e88:	00d12623          	sw	a3,12(sp)
20003e8c:	4c8000ef          	jal	20004354 <_fstat_r>
20003e90:	00c12683          	lw	a3,12(sp)
20003e94:	fc0540e3          	bltz	a0,20003e54 <__swhatbuf_r+0x20>
20003e98:	01c12783          	lw	a5,28(sp)
20003e9c:	0000f737          	lui	a4,0xf
20003ea0:	00e7f7b3          	and	a5,a5,a4
20003ea4:	ffffe737          	lui	a4,0xffffe
20003ea8:	00e787b3          	add	a5,a5,a4
20003eac:	0017b793          	seqz	a5,a5
20003eb0:	fb1ff06f          	j	20003e60 <__swhatbuf_r+0x2c>
20003eb4:	00000793          	li	a5,0
20003eb8:	04000713          	li	a4,64
20003ebc:	fa9ff06f          	j	20003e64 <__swhatbuf_r+0x30>

20003ec0 <__smakebuf_r>:
20003ec0:	00c5d703          	lhu	a4,12(a1)
20003ec4:	fd010113          	addi	sp,sp,-48
20003ec8:	02812423          	sw	s0,40(sp)
20003ecc:	02112623          	sw	ra,44(sp)
20003ed0:	02912223          	sw	s1,36(sp)
20003ed4:	00277713          	andi	a4,a4,2
20003ed8:	00058413          	mv	s0,a1
20003edc:	02070663          	beqz	a4,20003f08 <__smakebuf_r+0x48>
20003ee0:	04740793          	addi	a5,s0,71
20003ee4:	00f42023          	sw	a5,0(s0)
20003ee8:	00f42823          	sw	a5,16(s0)
20003eec:	00100793          	li	a5,1
20003ef0:	00f42a23          	sw	a5,20(s0)
20003ef4:	02c12083          	lw	ra,44(sp)
20003ef8:	02812403          	lw	s0,40(sp)
20003efc:	02412483          	lw	s1,36(sp)
20003f00:	03010113          	addi	sp,sp,48
20003f04:	00008067          	ret
20003f08:	01c10693          	addi	a3,sp,28
20003f0c:	01810613          	addi	a2,sp,24
20003f10:	00050493          	mv	s1,a0
20003f14:	f21ff0ef          	jal	20003e34 <__swhatbuf_r>
20003f18:	01812583          	lw	a1,24(sp)
20003f1c:	00048513          	mv	a0,s1
20003f20:	00b12623          	sw	a1,12(sp)
20003f24:	935fe0ef          	jal	20002858 <_malloc_r>
20003f28:	00c41783          	lh	a5,12(s0)
20003f2c:	00c12583          	lw	a1,12(sp)
20003f30:	00051e63          	bnez	a0,20003f4c <__smakebuf_r+0x8c>
20003f34:	2007f713          	andi	a4,a5,512
20003f38:	fa071ee3          	bnez	a4,20003ef4 <__smakebuf_r+0x34>
20003f3c:	ffc7f793          	andi	a5,a5,-4
20003f40:	0027e793          	ori	a5,a5,2
20003f44:	00f41623          	sh	a5,12(s0)
20003f48:	f99ff06f          	j	20003ee0 <__smakebuf_r+0x20>
20003f4c:	0807e793          	ori	a5,a5,128
20003f50:	00f41623          	sh	a5,12(s0)
20003f54:	01c12783          	lw	a5,28(sp)
20003f58:	00a42023          	sw	a0,0(s0)
20003f5c:	00a42823          	sw	a0,16(s0)
20003f60:	00b42a23          	sw	a1,20(s0)
20003f64:	f80788e3          	beqz	a5,20003ef4 <__smakebuf_r+0x34>
20003f68:	00e41583          	lh	a1,14(s0)
20003f6c:	00048513          	mv	a0,s1
20003f70:	434000ef          	jal	200043a4 <_isatty_r>
20003f74:	f80500e3          	beqz	a0,20003ef4 <__smakebuf_r+0x34>
20003f78:	00c45783          	lhu	a5,12(s0)
20003f7c:	ffc7f793          	andi	a5,a5,-4
20003f80:	0017e793          	ori	a5,a5,1
20003f84:	00f41623          	sh	a5,12(s0)
20003f88:	f6dff06f          	j	20003ef4 <__smakebuf_r+0x34>

20003f8c <_putc_r>:
20003f8c:	fe010113          	addi	sp,sp,-32
20003f90:	00812c23          	sw	s0,24(sp)
20003f94:	00112e23          	sw	ra,28(sp)
20003f98:	00050413          	mv	s0,a0
20003f9c:	02050063          	beqz	a0,20003fbc <_putc_r+0x30>
20003fa0:	02052783          	lw	a5,32(a0)
20003fa4:	00079c63          	bnez	a5,20003fbc <_putc_r+0x30>
20003fa8:	00c12623          	sw	a2,12(sp)
20003fac:	00b12423          	sw	a1,8(sp)
20003fb0:	91dff0ef          	jal	200038cc <__sinit>
20003fb4:	00c12603          	lw	a2,12(sp)
20003fb8:	00812583          	lw	a1,8(sp)
20003fbc:	00862783          	lw	a5,8(a2)
20003fc0:	0ff5f713          	zext.b	a4,a1
20003fc4:	fff78793          	addi	a5,a5,-1
20003fc8:	00f62423          	sw	a5,8(a2)
20003fcc:	0207d463          	bgez	a5,20003ff4 <_putc_r+0x68>
20003fd0:	01862683          	lw	a3,24(a2)
20003fd4:	00d7c663          	blt	a5,a3,20003fe0 <_putc_r+0x54>
20003fd8:	ff670793          	addi	a5,a4,-10 # ffffdff6 <__stack_top+0xdfff8582>
20003fdc:	00079c63          	bnez	a5,20003ff4 <_putc_r+0x68>
20003fe0:	00040513          	mv	a0,s0
20003fe4:	01812403          	lw	s0,24(sp)
20003fe8:	01c12083          	lw	ra,28(sp)
20003fec:	02010113          	addi	sp,sp,32
20003ff0:	c8cfe06f          	j	2000247c <__swbuf_r>
20003ff4:	00062783          	lw	a5,0(a2)
20003ff8:	0ff5f513          	zext.b	a0,a1
20003ffc:	00178693          	addi	a3,a5,1
20004000:	00d62023          	sw	a3,0(a2)
20004004:	00e78023          	sb	a4,0(a5)
20004008:	01c12083          	lw	ra,28(sp)
2000400c:	01812403          	lw	s0,24(sp)
20004010:	02010113          	addi	sp,sp,32
20004014:	00008067          	ret

20004018 <putc>:
20004018:	200057b7          	lui	a5,0x20005
2000401c:	00058613          	mv	a2,a1
20004020:	00050593          	mv	a1,a0
20004024:	cf07a503          	lw	a0,-784(a5) # 20004cf0 <_impure_ptr>
20004028:	f65ff06f          	j	20003f8c <_putc_r>

2000402c <__sread>:
2000402c:	ff010113          	addi	sp,sp,-16
20004030:	00812423          	sw	s0,8(sp)
20004034:	00058413          	mv	s0,a1
20004038:	00e59583          	lh	a1,14(a1)
2000403c:	00112623          	sw	ra,12(sp)
20004040:	404000ef          	jal	20004444 <_read_r>
20004044:	02054063          	bltz	a0,20004064 <__sread+0x38>
20004048:	05442783          	lw	a5,84(s0)
2000404c:	00a787b3          	add	a5,a5,a0
20004050:	04f42a23          	sw	a5,84(s0)
20004054:	00c12083          	lw	ra,12(sp)
20004058:	00812403          	lw	s0,8(sp)
2000405c:	01010113          	addi	sp,sp,16
20004060:	00008067          	ret
20004064:	00c45783          	lhu	a5,12(s0)
20004068:	fffff737          	lui	a4,0xfffff
2000406c:	fff70713          	addi	a4,a4,-1 # ffffefff <__stack_top+0xdfff958b>
20004070:	00e7f7b3          	and	a5,a5,a4
20004074:	00f41623          	sh	a5,12(s0)
20004078:	fddff06f          	j	20004054 <__sread+0x28>

2000407c <__seofread>:
2000407c:	00000513          	li	a0,0
20004080:	00008067          	ret

20004084 <__swrite>:
20004084:	00c5d783          	lhu	a5,12(a1)
20004088:	fe010113          	addi	sp,sp,-32
2000408c:	00812c23          	sw	s0,24(sp)
20004090:	00912a23          	sw	s1,20(sp)
20004094:	01212823          	sw	s2,16(sp)
20004098:	01312623          	sw	s3,12(sp)
2000409c:	00112e23          	sw	ra,28(sp)
200040a0:	1007f793          	andi	a5,a5,256
200040a4:	00050493          	mv	s1,a0
200040a8:	00058413          	mv	s0,a1
200040ac:	00060913          	mv	s2,a2
200040b0:	00068993          	mv	s3,a3
200040b4:	00078a63          	beqz	a5,200040c8 <__swrite+0x44>
200040b8:	00e59583          	lh	a1,14(a1)
200040bc:	00200693          	li	a3,2
200040c0:	00000613          	li	a2,0
200040c4:	32c000ef          	jal	200043f0 <_lseek_r>
200040c8:	00c45783          	lhu	a5,12(s0)
200040cc:	fffff737          	lui	a4,0xfffff
200040d0:	fff70713          	addi	a4,a4,-1 # ffffefff <__stack_top+0xdfff958b>
200040d4:	00e7f7b3          	and	a5,a5,a4
200040d8:	00e41583          	lh	a1,14(s0)
200040dc:	00f41623          	sh	a5,12(s0)
200040e0:	01812403          	lw	s0,24(sp)
200040e4:	01c12083          	lw	ra,28(sp)
200040e8:	00098693          	mv	a3,s3
200040ec:	00090613          	mv	a2,s2
200040f0:	00c12983          	lw	s3,12(sp)
200040f4:	01012903          	lw	s2,16(sp)
200040f8:	00048513          	mv	a0,s1
200040fc:	01412483          	lw	s1,20(sp)
20004100:	02010113          	addi	sp,sp,32
20004104:	3e00006f          	j	200044e4 <_write_r>

20004108 <__sseek>:
20004108:	ff010113          	addi	sp,sp,-16
2000410c:	00812423          	sw	s0,8(sp)
20004110:	00058413          	mv	s0,a1
20004114:	00e59583          	lh	a1,14(a1)
20004118:	00112623          	sw	ra,12(sp)
2000411c:	2d4000ef          	jal	200043f0 <_lseek_r>
20004120:	fff00713          	li	a4,-1
20004124:	00c41783          	lh	a5,12(s0)
20004128:	02e51263          	bne	a0,a4,2000414c <__sseek+0x44>
2000412c:	80050713          	addi	a4,a0,-2048
20004130:	80070713          	addi	a4,a4,-2048
20004134:	00e7f7b3          	and	a5,a5,a4
20004138:	00f41623          	sh	a5,12(s0)
2000413c:	00c12083          	lw	ra,12(sp)
20004140:	00812403          	lw	s0,8(sp)
20004144:	01010113          	addi	sp,sp,16
20004148:	00008067          	ret
2000414c:	00001737          	lui	a4,0x1
20004150:	00e7e7b3          	or	a5,a5,a4
20004154:	00f41623          	sh	a5,12(s0)
20004158:	04a42a23          	sw	a0,84(s0)
2000415c:	fe1ff06f          	j	2000413c <__sseek+0x34>

20004160 <__sclose>:
20004160:	00e59583          	lh	a1,14(a1)
20004164:	0280006f          	j	2000418c <_close_r>

20004168 <memchr>:
20004168:	0ff5f593          	zext.b	a1,a1
2000416c:	00c50633          	add	a2,a0,a2
20004170:	00c51663          	bne	a0,a2,2000417c <memchr+0x14>
20004174:	00000513          	li	a0,0
20004178:	00008067          	ret
2000417c:	00054783          	lbu	a5,0(a0)
20004180:	feb78ce3          	beq	a5,a1,20004178 <memchr+0x10>
20004184:	00150513          	addi	a0,a0,1
20004188:	fe9ff06f          	j	20004170 <memchr+0x8>

2000418c <_close_r>:
2000418c:	ff010113          	addi	sp,sp,-16
20004190:	00812423          	sw	s0,8(sp)
20004194:	00912223          	sw	s1,4(sp)
20004198:	20005437          	lui	s0,0x20005
2000419c:	00050493          	mv	s1,a0
200041a0:	00058513          	mv	a0,a1
200041a4:	00112623          	sw	ra,12(sp)
200041a8:	e6042823          	sw	zero,-400(s0) # 20004e70 <errno>
200041ac:	cdcfd0ef          	jal	20001688 <_close>
200041b0:	fff00793          	li	a5,-1
200041b4:	00f51863          	bne	a0,a5,200041c4 <_close_r+0x38>
200041b8:	e7042783          	lw	a5,-400(s0)
200041bc:	00078463          	beqz	a5,200041c4 <_close_r+0x38>
200041c0:	00f4a023          	sw	a5,0(s1)
200041c4:	00c12083          	lw	ra,12(sp)
200041c8:	00812403          	lw	s0,8(sp)
200041cc:	00412483          	lw	s1,4(sp)
200041d0:	01010113          	addi	sp,sp,16
200041d4:	00008067          	ret

200041d8 <_reclaim_reent>:
200041d8:	200057b7          	lui	a5,0x20005
200041dc:	cf07a783          	lw	a5,-784(a5) # 20004cf0 <_impure_ptr>
200041e0:	16a78863          	beq	a5,a0,20004350 <_reclaim_reent+0x178>
200041e4:	01c52783          	lw	a5,28(a0)
200041e8:	fe010113          	addi	sp,sp,-32
200041ec:	00812c23          	sw	s0,24(sp)
200041f0:	00112e23          	sw	ra,28(sp)
200041f4:	00912a23          	sw	s1,20(sp)
200041f8:	01212823          	sw	s2,16(sp)
200041fc:	01312623          	sw	s3,12(sp)
20004200:	00050413          	mv	s0,a0
20004204:	08078463          	beqz	a5,2000428c <_reclaim_reent+0xb4>
20004208:	00c7a783          	lw	a5,12(a5)
2000420c:	02078c63          	beqz	a5,20004244 <_reclaim_reent+0x6c>
20004210:	00000493          	li	s1,0
20004214:	08000913          	li	s2,128
20004218:	01c42783          	lw	a5,28(s0)
2000421c:	00c7a783          	lw	a5,12(a5)
20004220:	009787b3          	add	a5,a5,s1
20004224:	0007a583          	lw	a1,0(a5)
20004228:	04059863          	bnez	a1,20004278 <_reclaim_reent+0xa0>
2000422c:	00448493          	addi	s1,s1,4
20004230:	ff2494e3          	bne	s1,s2,20004218 <_reclaim_reent+0x40>
20004234:	01c42783          	lw	a5,28(s0)
20004238:	00040513          	mv	a0,s0
2000423c:	00c7a583          	lw	a1,12(a5)
20004240:	c74fe0ef          	jal	200026b4 <_free_r>
20004244:	01c42783          	lw	a5,28(s0)
20004248:	0007a583          	lw	a1,0(a5)
2000424c:	00058663          	beqz	a1,20004258 <_reclaim_reent+0x80>
20004250:	00040513          	mv	a0,s0
20004254:	c60fe0ef          	jal	200026b4 <_free_r>
20004258:	01c42783          	lw	a5,28(s0)
2000425c:	0087a483          	lw	s1,8(a5)
20004260:	02048663          	beqz	s1,2000428c <_reclaim_reent+0xb4>
20004264:	00048593          	mv	a1,s1
20004268:	00040513          	mv	a0,s0
2000426c:	0004a483          	lw	s1,0(s1)
20004270:	c44fe0ef          	jal	200026b4 <_free_r>
20004274:	fedff06f          	j	20004260 <_reclaim_reent+0x88>
20004278:	0005a983          	lw	s3,0(a1)
2000427c:	00040513          	mv	a0,s0
20004280:	c34fe0ef          	jal	200026b4 <_free_r>
20004284:	00098593          	mv	a1,s3
20004288:	fa1ff06f          	j	20004228 <_reclaim_reent+0x50>
2000428c:	01442583          	lw	a1,20(s0)
20004290:	00058663          	beqz	a1,2000429c <_reclaim_reent+0xc4>
20004294:	00040513          	mv	a0,s0
20004298:	c1cfe0ef          	jal	200026b4 <_free_r>
2000429c:	01c42583          	lw	a1,28(s0)
200042a0:	00058663          	beqz	a1,200042ac <_reclaim_reent+0xd4>
200042a4:	00040513          	mv	a0,s0
200042a8:	c0cfe0ef          	jal	200026b4 <_free_r>
200042ac:	03042583          	lw	a1,48(s0)
200042b0:	00058663          	beqz	a1,200042bc <_reclaim_reent+0xe4>
200042b4:	00040513          	mv	a0,s0
200042b8:	bfcfe0ef          	jal	200026b4 <_free_r>
200042bc:	03442583          	lw	a1,52(s0)
200042c0:	00058663          	beqz	a1,200042cc <_reclaim_reent+0xf4>
200042c4:	00040513          	mv	a0,s0
200042c8:	becfe0ef          	jal	200026b4 <_free_r>
200042cc:	03842583          	lw	a1,56(s0)
200042d0:	00058663          	beqz	a1,200042dc <_reclaim_reent+0x104>
200042d4:	00040513          	mv	a0,s0
200042d8:	bdcfe0ef          	jal	200026b4 <_free_r>
200042dc:	04842583          	lw	a1,72(s0)
200042e0:	00058663          	beqz	a1,200042ec <_reclaim_reent+0x114>
200042e4:	00040513          	mv	a0,s0
200042e8:	bccfe0ef          	jal	200026b4 <_free_r>
200042ec:	04442583          	lw	a1,68(s0)
200042f0:	00058663          	beqz	a1,200042fc <_reclaim_reent+0x124>
200042f4:	00040513          	mv	a0,s0
200042f8:	bbcfe0ef          	jal	200026b4 <_free_r>
200042fc:	02c42583          	lw	a1,44(s0)
20004300:	00058663          	beqz	a1,2000430c <_reclaim_reent+0x134>
20004304:	00040513          	mv	a0,s0
20004308:	bacfe0ef          	jal	200026b4 <_free_r>
2000430c:	02042783          	lw	a5,32(s0)
20004310:	02078263          	beqz	a5,20004334 <_reclaim_reent+0x15c>
20004314:	00040513          	mv	a0,s0
20004318:	01812403          	lw	s0,24(sp)
2000431c:	01c12083          	lw	ra,28(sp)
20004320:	01412483          	lw	s1,20(sp)
20004324:	01012903          	lw	s2,16(sp)
20004328:	00c12983          	lw	s3,12(sp)
2000432c:	02010113          	addi	sp,sp,32
20004330:	00078067          	jr	a5
20004334:	01c12083          	lw	ra,28(sp)
20004338:	01812403          	lw	s0,24(sp)
2000433c:	01412483          	lw	s1,20(sp)
20004340:	01012903          	lw	s2,16(sp)
20004344:	00c12983          	lw	s3,12(sp)
20004348:	02010113          	addi	sp,sp,32
2000434c:	00008067          	ret
20004350:	00008067          	ret

20004354 <_fstat_r>:
20004354:	ff010113          	addi	sp,sp,-16
20004358:	00812423          	sw	s0,8(sp)
2000435c:	00912223          	sw	s1,4(sp)
20004360:	20005437          	lui	s0,0x20005
20004364:	00050493          	mv	s1,a0
20004368:	00058513          	mv	a0,a1
2000436c:	00060593          	mv	a1,a2
20004370:	00112623          	sw	ra,12(sp)
20004374:	e6042823          	sw	zero,-400(s0) # 20004e70 <errno>
20004378:	b70fd0ef          	jal	200016e8 <_fstat>
2000437c:	fff00793          	li	a5,-1
20004380:	00f51863          	bne	a0,a5,20004390 <_fstat_r+0x3c>
20004384:	e7042783          	lw	a5,-400(s0)
20004388:	00078463          	beqz	a5,20004390 <_fstat_r+0x3c>
2000438c:	00f4a023          	sw	a5,0(s1)
20004390:	00c12083          	lw	ra,12(sp)
20004394:	00812403          	lw	s0,8(sp)
20004398:	00412483          	lw	s1,4(sp)
2000439c:	01010113          	addi	sp,sp,16
200043a0:	00008067          	ret

200043a4 <_isatty_r>:
200043a4:	ff010113          	addi	sp,sp,-16
200043a8:	00812423          	sw	s0,8(sp)
200043ac:	00912223          	sw	s1,4(sp)
200043b0:	20005437          	lui	s0,0x20005
200043b4:	00050493          	mv	s1,a0
200043b8:	00058513          	mv	a0,a1
200043bc:	00112623          	sw	ra,12(sp)
200043c0:	e6042823          	sw	zero,-400(s0) # 20004e70 <errno>
200043c4:	b94fd0ef          	jal	20001758 <_isatty>
200043c8:	fff00793          	li	a5,-1
200043cc:	00f51863          	bne	a0,a5,200043dc <_isatty_r+0x38>
200043d0:	e7042783          	lw	a5,-400(s0)
200043d4:	00078463          	beqz	a5,200043dc <_isatty_r+0x38>
200043d8:	00f4a023          	sw	a5,0(s1)
200043dc:	00c12083          	lw	ra,12(sp)
200043e0:	00812403          	lw	s0,8(sp)
200043e4:	00412483          	lw	s1,4(sp)
200043e8:	01010113          	addi	sp,sp,16
200043ec:	00008067          	ret

200043f0 <_lseek_r>:
200043f0:	ff010113          	addi	sp,sp,-16
200043f4:	00812423          	sw	s0,8(sp)
200043f8:	00912223          	sw	s1,4(sp)
200043fc:	20005437          	lui	s0,0x20005
20004400:	00050493          	mv	s1,a0
20004404:	00058513          	mv	a0,a1
20004408:	00060593          	mv	a1,a2
2000440c:	00068613          	mv	a2,a3
20004410:	00112623          	sw	ra,12(sp)
20004414:	e6042823          	sw	zero,-400(s0) # 20004e70 <errno>
20004418:	b0cfd0ef          	jal	20001724 <_lseek>
2000441c:	fff00793          	li	a5,-1
20004420:	00f51863          	bne	a0,a5,20004430 <_lseek_r+0x40>
20004424:	e7042783          	lw	a5,-400(s0)
20004428:	00078463          	beqz	a5,20004430 <_lseek_r+0x40>
2000442c:	00f4a023          	sw	a5,0(s1)
20004430:	00c12083          	lw	ra,12(sp)
20004434:	00812403          	lw	s0,8(sp)
20004438:	00412483          	lw	s1,4(sp)
2000443c:	01010113          	addi	sp,sp,16
20004440:	00008067          	ret

20004444 <_read_r>:
20004444:	ff010113          	addi	sp,sp,-16
20004448:	00812423          	sw	s0,8(sp)
2000444c:	00912223          	sw	s1,4(sp)
20004450:	20005437          	lui	s0,0x20005
20004454:	00050493          	mv	s1,a0
20004458:	00058513          	mv	a0,a1
2000445c:	00060593          	mv	a1,a2
20004460:	00068613          	mv	a2,a3
20004464:	00112623          	sw	ra,12(sp)
20004468:	e6042823          	sw	zero,-400(s0) # 20004e70 <errno>
2000446c:	b80fd0ef          	jal	200017ec <_read>
20004470:	fff00793          	li	a5,-1
20004474:	00f51863          	bne	a0,a5,20004484 <_read_r+0x40>
20004478:	e7042783          	lw	a5,-400(s0)
2000447c:	00078463          	beqz	a5,20004484 <_read_r+0x40>
20004480:	00f4a023          	sw	a5,0(s1)
20004484:	00c12083          	lw	ra,12(sp)
20004488:	00812403          	lw	s0,8(sp)
2000448c:	00412483          	lw	s1,4(sp)
20004490:	01010113          	addi	sp,sp,16
20004494:	00008067          	ret

20004498 <_sbrk_r>:
20004498:	ff010113          	addi	sp,sp,-16
2000449c:	00812423          	sw	s0,8(sp)
200044a0:	00912223          	sw	s1,4(sp)
200044a4:	20005437          	lui	s0,0x20005
200044a8:	00050493          	mv	s1,a0
200044ac:	00058513          	mv	a0,a1
200044b0:	00112623          	sw	ra,12(sp)
200044b4:	e6042823          	sw	zero,-400(s0) # 20004e70 <errno>
200044b8:	e81fc0ef          	jal	20001338 <_sbrk>
200044bc:	fff00793          	li	a5,-1
200044c0:	00f51863          	bne	a0,a5,200044d0 <_sbrk_r+0x38>
200044c4:	e7042783          	lw	a5,-400(s0)
200044c8:	00078463          	beqz	a5,200044d0 <_sbrk_r+0x38>
200044cc:	00f4a023          	sw	a5,0(s1)
200044d0:	00c12083          	lw	ra,12(sp)
200044d4:	00812403          	lw	s0,8(sp)
200044d8:	00412483          	lw	s1,4(sp)
200044dc:	01010113          	addi	sp,sp,16
200044e0:	00008067          	ret

200044e4 <_write_r>:
200044e4:	ff010113          	addi	sp,sp,-16
200044e8:	00812423          	sw	s0,8(sp)
200044ec:	00912223          	sw	s1,4(sp)
200044f0:	20005437          	lui	s0,0x20005
200044f4:	00050493          	mv	s1,a0
200044f8:	00058513          	mv	a0,a1
200044fc:	00060593          	mv	a1,a2
20004500:	00068613          	mv	a2,a3
20004504:	00112623          	sw	ra,12(sp)
20004508:	e6042823          	sw	zero,-400(s0) # 20004e70 <errno>
2000450c:	a78fd0ef          	jal	20001784 <_write>
20004510:	fff00793          	li	a5,-1
20004514:	00f51863          	bne	a0,a5,20004524 <_write_r+0x40>
20004518:	e7042783          	lw	a5,-400(s0)
2000451c:	00078463          	beqz	a5,20004524 <_write_r+0x40>
20004520:	00f4a023          	sw	a5,0(s1)
20004524:	00c12083          	lw	ra,12(sp)
20004528:	00812403          	lw	s0,8(sp)
2000452c:	00412483          	lw	s1,4(sp)
20004530:	01010113          	addi	sp,sp,16
20004534:	00008067          	ret

20004538 <memmove>:
20004538:	02060c63          	beqz	a2,20004570 <memmove+0x38>
2000453c:	00050313          	mv	t1,a0
20004540:	00100693          	li	a3,1
20004544:	00b56a63          	bltu	a0,a1,20004558 <memmove+0x20>
20004548:	fff00693          	li	a3,-1
2000454c:	fff60713          	addi	a4,a2,-1
20004550:	00e30333          	add	t1,t1,a4
20004554:	00e585b3          	add	a1,a1,a4
20004558:	00058383          	lb	t2,0(a1)
2000455c:	00730023          	sb	t2,0(t1) # 1000000 <_start-0x1f000000>
20004560:	fff60613          	addi	a2,a2,-1
20004564:	00d30333          	add	t1,t1,a3
20004568:	00d585b3          	add	a1,a1,a3
2000456c:	fe0616e3          	bnez	a2,20004558 <memmove+0x20>
20004570:	00008067          	ret

20004574 <memset>:
20004574:	00050313          	mv	t1,a0
20004578:	00060a63          	beqz	a2,2000458c <memset+0x18>
2000457c:	00b30023          	sb	a1,0(t1)
20004580:	fff60613          	addi	a2,a2,-1
20004584:	00130313          	addi	t1,t1,1
20004588:	fe061ae3          	bnez	a2,2000457c <memset+0x8>
2000458c:	00008067          	ret

20004590 <memcpy>:
20004590:	00050313          	mv	t1,a0
20004594:	00060e63          	beqz	a2,200045b0 <memcpy+0x20>
20004598:	00058383          	lb	t2,0(a1)
2000459c:	00730023          	sb	t2,0(t1)
200045a0:	fff60613          	addi	a2,a2,-1
200045a4:	00130313          	addi	t1,t1,1
200045a8:	00158593          	addi	a1,a1,1
200045ac:	fe0616e3          	bnez	a2,20004598 <memcpy+0x8>
200045b0:	00008067          	ret

200045b4 <_realloc_r>:
200045b4:	00059663          	bnez	a1,200045c0 <_realloc_r+0xc>
200045b8:	00060593          	mv	a1,a2
200045bc:	a9cfe06f          	j	20002858 <_malloc_r>
200045c0:	fe010113          	addi	sp,sp,-32
200045c4:	00812c23          	sw	s0,24(sp)
200045c8:	01412423          	sw	s4,8(sp)
200045cc:	00112e23          	sw	ra,28(sp)
200045d0:	00912a23          	sw	s1,20(sp)
200045d4:	01212823          	sw	s2,16(sp)
200045d8:	01312623          	sw	s3,12(sp)
200045dc:	00060413          	mv	s0,a2
200045e0:	00050a13          	mv	s4,a0
200045e4:	02061863          	bnez	a2,20004614 <_realloc_r+0x60>
200045e8:	8ccfe0ef          	jal	200026b4 <_free_r>
200045ec:	00000493          	li	s1,0
200045f0:	01c12083          	lw	ra,28(sp)
200045f4:	01812403          	lw	s0,24(sp)
200045f8:	01012903          	lw	s2,16(sp)
200045fc:	00c12983          	lw	s3,12(sp)
20004600:	00812a03          	lw	s4,8(sp)
20004604:	00048513          	mv	a0,s1
20004608:	01412483          	lw	s1,20(sp)
2000460c:	02010113          	addi	sp,sp,32
20004610:	00008067          	ret
20004614:	00058493          	mv	s1,a1
20004618:	058000ef          	jal	20004670 <_malloc_usable_size_r>
2000461c:	00050913          	mv	s2,a0
20004620:	00856663          	bltu	a0,s0,2000462c <_realloc_r+0x78>
20004624:	00155793          	srli	a5,a0,0x1
20004628:	fc87e4e3          	bltu	a5,s0,200045f0 <_realloc_r+0x3c>
2000462c:	00040593          	mv	a1,s0
20004630:	000a0513          	mv	a0,s4
20004634:	a24fe0ef          	jal	20002858 <_malloc_r>
20004638:	00050993          	mv	s3,a0
2000463c:	00051663          	bnez	a0,20004648 <_realloc_r+0x94>
20004640:	00098493          	mv	s1,s3
20004644:	fadff06f          	j	200045f0 <_realloc_r+0x3c>
20004648:	00040613          	mv	a2,s0
2000464c:	00897463          	bgeu	s2,s0,20004654 <_realloc_r+0xa0>
20004650:	00090613          	mv	a2,s2
20004654:	00048593          	mv	a1,s1
20004658:	00098513          	mv	a0,s3
2000465c:	f35ff0ef          	jal	20004590 <memcpy>
20004660:	00048593          	mv	a1,s1
20004664:	000a0513          	mv	a0,s4
20004668:	84cfe0ef          	jal	200026b4 <_free_r>
2000466c:	fd5ff06f          	j	20004640 <_realloc_r+0x8c>

20004670 <_malloc_usable_size_r>:
20004670:	ffc5a783          	lw	a5,-4(a1)
20004674:	ffc78513          	addi	a0,a5,-4
20004678:	0007d863          	bgez	a5,20004688 <_malloc_usable_size_r+0x18>
2000467c:	00a585b3          	add	a1,a1,a0
20004680:	0005a783          	lw	a5,0(a1)
20004684:	00f50533          	add	a0,a0,a5
20004688:	00008067          	ret
2000468c:	63656843          	.insn	4, 0x63656843
20004690:	676e696b          	.insn	4, 0x676e696b
20004694:	6120                	.insn	2, 0x6120
20004696:	67697373          	csrrci	t1,0x676,18
2000469a:	6d6e                	.insn	2, 0x6d6e
2000469c:	6e65                	.insn	2, 0x6e65
2000469e:	2074                	.insn	2, 0x2074
200046a0:	2e31                	.insn	2, 0x2e31
200046a2:	2e2e                	.insn	2, 0x2e2e
200046a4:	0000                	.insn	2, 0x0000
200046a6:	0000                	.insn	2, 0x0000
200046a8:	410a                	.insn	2, 0x410a
200046aa:	67697373          	csrrci	t1,0x676,18
200046ae:	6d6e                	.insn	2, 0x6d6e
200046b0:	6e65                	.insn	2, 0x6e65
200046b2:	2074                	.insn	2, 0x2074
200046b4:	2031                	.insn	2, 0x2031
200046b6:	7369                	.insn	2, 0x7369
200046b8:	6e20                	.insn	2, 0x6e20
200046ba:	6320746f          	jal	s0,2000bcec <__stack_top+0x6278>
200046be:	6572726f          	jal	tp,2002c514 <__stack_top+0x26aa0>
200046c2:	43207463          	bgeu	zero,s2,20004aea <__clz_tab+0x22>
200046c6:	4746                	.insn	2, 0x4746
200046c8:	524c                	.insn	2, 0x524c
200046ca:	303d                	.insn	2, 0x303d
200046cc:	2578                	.insn	2, 0x2578
200046ce:	3830                	.insn	2, 0x3830
200046d0:	2c58                	.insn	2, 0x2c58
200046d2:	4320                	.insn	2, 0x4320
200046d4:	4746                	.insn	2, 0x4746
200046d6:	5248                	.insn	2, 0x5248
200046d8:	303d                	.insn	2, 0x303d
200046da:	2578                	.insn	2, 0x2578
200046dc:	3830                	.insn	2, 0x3830
200046de:	2e58                	.insn	2, 0x2e58
200046e0:	000a                	.insn	2, 0x000a
200046e2:	0000                	.insn	2, 0x0000
200046e4:	4150                	.insn	2, 0x4150
200046e6:	44455353          	.insn	4, 0x44455353
200046ea:	0021                	.insn	2, 0x0021
200046ec:	63656843          	.insn	4, 0x63656843
200046f0:	676e696b          	.insn	4, 0x676e696b
200046f4:	6120                	.insn	2, 0x6120
200046f6:	67697373          	csrrci	t1,0x676,18
200046fa:	6d6e                	.insn	2, 0x6d6e
200046fc:	6e65                	.insn	2, 0x6e65
200046fe:	2074                	.insn	2, 0x2074
20004700:	2e32                	.insn	2, 0x2e32
20004702:	2e31                	.insn	2, 0x2e31
20004704:	2e2e                	.insn	2, 0x2e2e
20004706:	0000                	.insn	2, 0x0000
20004708:	410a                	.insn	2, 0x410a
2000470a:	67697373          	csrrci	t1,0x676,18
2000470e:	6d6e                	.insn	2, 0x6d6e
20004710:	6e65                	.insn	2, 0x6e65
20004712:	2074                	.insn	2, 0x2074
20004714:	2e32                	.insn	2, 0x2e32
20004716:	2031                	.insn	2, 0x2031
20004718:	7369                	.insn	2, 0x7369
2000471a:	6e20                	.insn	2, 0x6e20
2000471c:	6320746f          	jal	s0,2000bd4e <__stack_top+0x62da>
20004720:	6572726f          	jal	tp,2002c576 <__stack_top+0x26b02>
20004724:	202c7463          	bgeu	s8,sp,2000492c <_malloc_usable_size_r+0x2bc>
20004728:	6e45                	.insn	2, 0x6e45
2000472a:	6261                	.insn	2, 0x6261
2000472c:	656c                	.insn	2, 0x656c
2000472e:	6e20                	.insn	2, 0x6e20
20004730:	7320746f          	jal	s0,2000be62 <__stack_top+0x63ee>
20004734:	7465                	.insn	2, 0x7465
20004736:	0a2e                	.insn	2, 0x0a2e
20004738:	0000                	.insn	2, 0x0000
2000473a:	0000                	.insn	2, 0x0000
2000473c:	410a                	.insn	2, 0x410a
2000473e:	67697373          	csrrci	t1,0x676,18
20004742:	6d6e                	.insn	2, 0x6d6e
20004744:	6e65                	.insn	2, 0x6e65
20004746:	2074                	.insn	2, 0x2074
20004748:	2e32                	.insn	2, 0x2e32
2000474a:	2031                	.insn	2, 0x2031
2000474c:	7369                	.insn	2, 0x7369
2000474e:	6e20                	.insn	2, 0x6e20
20004750:	6320746f          	jal	s0,2000bd82 <__stack_top+0x630e>
20004754:	6572726f          	jal	tp,2002c5aa <__stack_top+0x26b36>
20004758:	202c7463          	bgeu	s8,sp,20004960 <_malloc_usable_size_r+0x2f0>
2000475c:	7074754f          	fnmadd.s	fa0,fs0,ft7,fa4
20004760:	7475                	.insn	2, 0x7475
20004762:	6420                	.insn	2, 0x6420
20004764:	7461                	.insn	2, 0x7461
20004766:	2061                	.insn	2, 0x2061
20004768:	7369                	.insn	2, 0x7369
2000476a:	3020                	.insn	2, 0x3020
2000476c:	2578                	.insn	2, 0x2578
2000476e:	3230                	.insn	2, 0x3230
20004770:	2c58                	.insn	2, 0x2c58
20004772:	6520                	.insn	2, 0x6520
20004774:	7078                	.insn	2, 0x7078
20004776:	6365                	.insn	2, 0x6365
20004778:	6574                	.insn	2, 0x6574
2000477a:	2064                	.insn	2, 0x2064
2000477c:	7830                	.insn	2, 0x7830
2000477e:	3025                	.insn	2, 0x3025
20004780:	5832                	.insn	2, 0x5832
20004782:	0a2e                	.insn	2, 0x0a2e
20004784:	0000                	.insn	2, 0x0000
20004786:	0000                	.insn	2, 0x0000
20004788:	63656843          	.insn	4, 0x63656843
2000478c:	676e696b          	.insn	4, 0x676e696b
20004790:	6120                	.insn	2, 0x6120
20004792:	67697373          	csrrci	t1,0x676,18
20004796:	6d6e                	.insn	2, 0x6d6e
20004798:	6e65                	.insn	2, 0x6e65
2000479a:	2074                	.insn	2, 0x2074
2000479c:	2e32                	.insn	2, 0x2e32
2000479e:	2e32                	.insn	2, 0x2e32
200047a0:	2e2e                	.insn	2, 0x2e2e
200047a2:	0000                	.insn	2, 0x0000
200047a4:	410a                	.insn	2, 0x410a
200047a6:	67697373          	csrrci	t1,0x676,18
200047aa:	6d6e                	.insn	2, 0x6d6e
200047ac:	6e65                	.insn	2, 0x6e65
200047ae:	2074                	.insn	2, 0x2074
200047b0:	2e32                	.insn	2, 0x2e32
200047b2:	2032                	.insn	2, 0x2032
200047b4:	7369                	.insn	2, 0x7369
200047b6:	6e20                	.insn	2, 0x6e20
200047b8:	6320746f          	jal	s0,2000bdea <__stack_top+0x6376>
200047bc:	6572726f          	jal	tp,2002c612 <__stack_top+0x26b9e>
200047c0:	202c7463          	bgeu	s8,sp,200049c8 <_malloc_usable_size_r+0x358>
200047c4:	6e45                	.insn	2, 0x6e45
200047c6:	6261                	.insn	2, 0x6261
200047c8:	656c                	.insn	2, 0x656c
200047ca:	6920                	.insn	2, 0x6920
200047cc:	74732073          	csrs	0x747,t1
200047d0:	6c69                	.insn	2, 0x6c69
200047d2:	206c                	.insn	2, 0x206c
200047d4:	2e746573          	csrrsi	a0,0x2e7,8
200047d8:	0000                	.insn	2, 0x0000
200047da:	0000                	.insn	2, 0x0000
200047dc:	63656843          	.insn	4, 0x63656843
200047e0:	676e696b          	.insn	4, 0x676e696b
200047e4:	6120                	.insn	2, 0x6120
200047e6:	67697373          	csrrci	t1,0x676,18
200047ea:	6d6e                	.insn	2, 0x6d6e
200047ec:	6e65                	.insn	2, 0x6e65
200047ee:	2074                	.insn	2, 0x2074
200047f0:	2e2e2e33          	.insn	4, 0x2e2e2e33
200047f4:	0000                	.insn	2, 0x0000
200047f6:	0000                	.insn	2, 0x0000
200047f8:	410a                	.insn	2, 0x410a
200047fa:	67697373          	csrrci	t1,0x676,18
200047fe:	6d6e                	.insn	2, 0x6d6e
20004800:	6e65                	.insn	2, 0x6e65
20004802:	2074                	.insn	2, 0x2074
20004804:	73692033          	.insn	4, 0x73692033
20004808:	6e20                	.insn	2, 0x6e20
2000480a:	6320746f          	jal	s0,2000be3c <__stack_top+0x63c8>
2000480e:	6572726f          	jal	tp,2002c664 <__stack_top+0x26bf0>
20004812:	202c7463          	bgeu	s8,sp,20004a1a <_malloc_usable_size_r+0x3aa>
20004816:	5352                	.insn	2, 0x5352
20004818:	202c                	.insn	2, 0x202c
2000481a:	5752                	.insn	2, 0x5752
2000481c:	202c                	.insn	2, 0x202c
2000481e:	4520726f          	jal	tp,2000bc70 <__stack_top+0x61fc>
20004822:	6920                	.insn	2, 0x6920
20004824:	65732073          	csrs	hviprio2h,t1
20004828:	2e74                	.insn	2, 0x2e74
2000482a:	0000                	.insn	2, 0x0000
2000482c:	63656843          	.insn	4, 0x63656843
20004830:	676e696b          	.insn	4, 0x676e696b
20004834:	6120                	.insn	2, 0x6120
20004836:	67697373          	csrrci	t1,0x676,18
2000483a:	6d6e                	.insn	2, 0x6d6e
2000483c:	6e65                	.insn	2, 0x6e65
2000483e:	2074                	.insn	2, 0x2074
20004840:	2e34                	.insn	2, 0x2e34
20004842:	2e31                	.insn	2, 0x2e31
20004844:	2e2e                	.insn	2, 0x2e2e
20004846:	0000                	.insn	2, 0x0000
20004848:	410a                	.insn	2, 0x410a
2000484a:	67697373          	csrrci	t1,0x676,18
2000484e:	6d6e                	.insn	2, 0x6d6e
20004850:	6e65                	.insn	2, 0x6e65
20004852:	2074                	.insn	2, 0x2074
20004854:	2e34                	.insn	2, 0x2e34
20004856:	2031                	.insn	2, 0x2031
20004858:	7369                	.insn	2, 0x7369
2000485a:	6e20                	.insn	2, 0x6e20
2000485c:	6320746f          	jal	s0,2000be8e <__stack_top+0x641a>
20004860:	6572726f          	jal	tp,2002c6b6 <__stack_top+0x26c42>
20004864:	43207463          	bgeu	zero,s2,20004c8c <__clz_tab+0x1c4>
20004868:	4746                	.insn	2, 0x4746
2000486a:	5248                	.insn	2, 0x5248
2000486c:	303d                	.insn	2, 0x303d
2000486e:	2578                	.insn	2, 0x2578
20004870:	3830                	.insn	2, 0x3830
20004872:	2e58                	.insn	2, 0x2e58
20004874:	000a                	.insn	2, 0x000a
20004876:	0000                	.insn	2, 0x0000
20004878:	63656843          	.insn	4, 0x63656843
2000487c:	676e696b          	.insn	4, 0x676e696b
20004880:	6120                	.insn	2, 0x6120
20004882:	67697373          	csrrci	t1,0x676,18
20004886:	6d6e                	.insn	2, 0x6d6e
20004888:	6e65                	.insn	2, 0x6e65
2000488a:	2074                	.insn	2, 0x2074
2000488c:	2e34                	.insn	2, 0x2e34
2000488e:	2e32                	.insn	2, 0x2e32
20004890:	2e2e                	.insn	2, 0x2e2e
20004892:	0000                	.insn	2, 0x0000
20004894:	410a                	.insn	2, 0x410a
20004896:	67697373          	csrrci	t1,0x676,18
2000489a:	6d6e                	.insn	2, 0x6d6e
2000489c:	6e65                	.insn	2, 0x6e65
2000489e:	2074                	.insn	2, 0x2074
200048a0:	2e34                	.insn	2, 0x2e34
200048a2:	2032                	.insn	2, 0x2032
200048a4:	7369                	.insn	2, 0x7369
200048a6:	6e20                	.insn	2, 0x6e20
200048a8:	6320746f          	jal	s0,2000beda <__stack_top+0x6466>
200048ac:	6572726f          	jal	tp,2002c702 <__stack_top+0x26c8e>
200048b0:	202c7463          	bgeu	s8,sp,20004ab8 <_malloc_usable_size_r+0x448>
200048b4:	5352                	.insn	2, 0x5352
200048b6:	6f20                	.insn	2, 0x6f20
200048b8:	2072                	.insn	2, 0x2072
200048ba:	5752                	.insn	2, 0x5752
200048bc:	6e20                	.insn	2, 0x6e20
200048be:	7320746f          	jal	s0,2000bff0 <__stack_top+0x657c>
200048c2:	7465                	.insn	2, 0x7465
200048c4:	6320                	.insn	2, 0x6320
200048c6:	6572726f          	jal	tp,2002c71c <__stack_top+0x26ca8>
200048ca:	796c7463          	bgeu	s8,s6,20005052 <__bss_end__+0x1de>
200048ce:	002e                	.insn	2, 0x002e
200048d0:	63656843          	.insn	4, 0x63656843
200048d4:	676e696b          	.insn	4, 0x676e696b
200048d8:	6120                	.insn	2, 0x6120
200048da:	67697373          	csrrci	t1,0x676,18
200048de:	6d6e                	.insn	2, 0x6d6e
200048e0:	6e65                	.insn	2, 0x6e65
200048e2:	2074                	.insn	2, 0x2074
200048e4:	2e34                	.insn	2, 0x2e34
200048e6:	2e2e2e33          	.insn	4, 0x2e2e2e33
200048ea:	0000                	.insn	2, 0x0000
200048ec:	410a                	.insn	2, 0x410a
200048ee:	67697373          	csrrci	t1,0x676,18
200048f2:	6d6e                	.insn	2, 0x6d6e
200048f4:	6e65                	.insn	2, 0x6e65
200048f6:	2074                	.insn	2, 0x2074
200048f8:	2e34                	.insn	2, 0x2e34
200048fa:	73692033          	.insn	4, 0x73692033
200048fe:	6e20                	.insn	2, 0x6e20
20004900:	6320746f          	jal	s0,2000bf32 <__stack_top+0x64be>
20004904:	6572726f          	jal	tp,2002c75a <__stack_top+0x26ce6>
20004908:	202c7463          	bgeu	s8,sp,20004b10 <__clz_tab+0x48>
2000490c:	6e45                	.insn	2, 0x6e45
2000490e:	6261                	.insn	2, 0x6261
20004910:	656c                	.insn	2, 0x656c
20004912:	6e20                	.insn	2, 0x6e20
20004914:	7320746f          	jal	s0,2000c046 <__stack_top+0x65d2>
20004918:	7465                	.insn	2, 0x7465
2000491a:	002e                	.insn	2, 0x002e
2000491c:	63656843          	.insn	4, 0x63656843
20004920:	676e696b          	.insn	4, 0x676e696b
20004924:	6120                	.insn	2, 0x6120
20004926:	67697373          	csrrci	t1,0x676,18
2000492a:	6d6e                	.insn	2, 0x6d6e
2000492c:	6e65                	.insn	2, 0x6e65
2000492e:	2074                	.insn	2, 0x2074
20004930:	2e34                	.insn	2, 0x2e34
20004932:	2e34                	.insn	2, 0x2e34
20004934:	2e2e                	.insn	2, 0x2e2e
20004936:	0000                	.insn	2, 0x0000
20004938:	410a                	.insn	2, 0x410a
2000493a:	67697373          	csrrci	t1,0x676,18
2000493e:	6d6e                	.insn	2, 0x6d6e
20004940:	6e65                	.insn	2, 0x6e65
20004942:	2074                	.insn	2, 0x2074
20004944:	2e34                	.insn	2, 0x2e34
20004946:	2034                	.insn	2, 0x2034
20004948:	7369                	.insn	2, 0x7369
2000494a:	6e20                	.insn	2, 0x6e20
2000494c:	6320746f          	jal	s0,2000bf7e <__stack_top+0x650a>
20004950:	6572726f          	jal	tp,2002c7a6 <__stack_top+0x26d32>
20004954:	202c7463          	bgeu	s8,sp,20004b5c <__clz_tab+0x94>
20004958:	6e45                	.insn	2, 0x6e45
2000495a:	6261                	.insn	2, 0x6261
2000495c:	656c                	.insn	2, 0x656c
2000495e:	6920                	.insn	2, 0x6920
20004960:	74732073          	csrs	0x747,t1
20004964:	6c69                	.insn	2, 0x6c69
20004966:	206c                	.insn	2, 0x206c
20004968:	2e746573          	csrrsi	a0,0x2e7,8
2000496c:	0000                	.insn	2, 0x0000
2000496e:	0000                	.insn	2, 0x0000
20004970:	63656843          	.insn	4, 0x63656843
20004974:	676e696b          	.insn	4, 0x676e696b
20004978:	6120                	.insn	2, 0x6120
2000497a:	67697373          	csrrci	t1,0x676,18
2000497e:	6d6e                	.insn	2, 0x6d6e
20004980:	6e65                	.insn	2, 0x6e65
20004982:	2074                	.insn	2, 0x2074
20004984:	2e34                	.insn	2, 0x2e34
20004986:	2e35                	.insn	2, 0x2e35
20004988:	2e2e                	.insn	2, 0x2e2e
2000498a:	0000                	.insn	2, 0x0000
2000498c:	410a                	.insn	2, 0x410a
2000498e:	67697373          	csrrci	t1,0x676,18
20004992:	6d6e                	.insn	2, 0x6d6e
20004994:	6e65                	.insn	2, 0x6e65
20004996:	2074                	.insn	2, 0x2074
20004998:	2e34                	.insn	2, 0x2e34
2000499a:	2035                	.insn	2, 0x2035
2000499c:	7369                	.insn	2, 0x7369
2000499e:	6e20                	.insn	2, 0x6e20
200049a0:	6320746f          	jal	s0,2000bfd2 <__stack_top+0x655e>
200049a4:	6572726f          	jal	tp,2002c7fa <__stack_top+0x26d86>
200049a8:	43207463          	bgeu	zero,s2,20004dd0 <__sf+0xcc>
200049ac:	4746                	.insn	2, 0x4746
200049ae:	5248                	.insn	2, 0x5248
200049b0:	303d                	.insn	2, 0x303d
200049b2:	2578                	.insn	2, 0x2578
200049b4:	3830                	.insn	2, 0x3830
200049b6:	2e58                	.insn	2, 0x2e58
200049b8:	000a                	.insn	2, 0x000a
200049ba:	0000                	.insn	2, 0x0000
200049bc:	63656843          	.insn	4, 0x63656843
200049c0:	676e696b          	.insn	4, 0x676e696b
200049c4:	6120                	.insn	2, 0x6120
200049c6:	67697373          	csrrci	t1,0x676,18
200049ca:	6d6e                	.insn	2, 0x6d6e
200049cc:	6e65                	.insn	2, 0x6e65
200049ce:	2074                	.insn	2, 0x2074
200049d0:	2e35                	.insn	2, 0x2e35
200049d2:	2e2e                	.insn	2, 0x2e2e
200049d4:	0000                	.insn	2, 0x0000
200049d6:	0000                	.insn	2, 0x0000
200049d8:	410a                	.insn	2, 0x410a
200049da:	67697373          	csrrci	t1,0x676,18
200049de:	6d6e                	.insn	2, 0x6d6e
200049e0:	6e65                	.insn	2, 0x6e65
200049e2:	2074                	.insn	2, 0x2074
200049e4:	2035                	.insn	2, 0x2035
200049e6:	7369                	.insn	2, 0x7369
200049e8:	6e20                	.insn	2, 0x6e20
200049ea:	6320746f          	jal	s0,2000c01c <__stack_top+0x65a8>
200049ee:	6572726f          	jal	tp,2002c844 <__stack_top+0x26dd0>
200049f2:	202c7463          	bgeu	s8,sp,20004bfa <__clz_tab+0x132>
200049f6:	5352                	.insn	2, 0x5352
200049f8:	6f20                	.insn	2, 0x6f20
200049fa:	2072                	.insn	2, 0x2072
200049fc:	5752                	.insn	2, 0x5752
200049fe:	6e20                	.insn	2, 0x6e20
20004a00:	7320746f          	jal	s0,2000c132 <__stack_top+0x66be>
20004a04:	7465                	.insn	2, 0x7465
20004a06:	6320                	.insn	2, 0x6320
20004a08:	6572726f          	jal	tp,2002c85e <__stack_top+0x26dea>
20004a0c:	796c7463          	bgeu	s8,s6,20005194 <__bss_end__+0x320>
20004a10:	002e                	.insn	2, 0x002e
20004a12:	0000                	.insn	2, 0x0000
20004a14:	6f50                	.insn	2, 0x6f50
20004a16:	6c6c                	.insn	2, 0x6c6c
20004a18:	6e69                	.insn	2, 0x6e69
20004a1a:	74732067          	.insn	4, 0x74732067
20004a1e:	7461                	.insn	2, 0x7461
20004a20:	7375                	.insn	2, 0x7375
20004a22:	7520                	.insn	2, 0x7520
20004a24:	746e                	.insn	2, 0x746e
20004a26:	6c69                	.insn	2, 0x6c69
20004a28:	6420                	.insn	2, 0x6420
20004a2a:	7369                	.insn	2, 0x7369
20004a2c:	6c70                	.insn	2, 0x6c70
20004a2e:	7961                	.insn	2, 0x7961
20004a30:	6920                	.insn	2, 0x6920
20004a32:	65722073          	csrs	hviprio2h,tp
20004a36:	6461                	.insn	2, 0x6461
20004a38:	2e79                	.insn	2, 0x2e79
20004a3a:	2e2e                	.insn	2, 0x2e2e
20004a3c:	0000                	.insn	2, 0x0000
20004a3e:	0000                	.insn	2, 0x0000
20004a40:	440a                	.insn	2, 0x440a
20004a42:	7369                	.insn	2, 0x7369
20004a44:	6c70                	.insn	2, 0x6c70
20004a46:	7961                	.insn	2, 0x7961
20004a48:	6920                	.insn	2, 0x6920
20004a4a:	65722073          	csrs	hviprio2h,tp
20004a4e:	6461                	.insn	2, 0x6461
20004a50:	2179                	.insn	2, 0x2179
20004a52:	0000                	.insn	2, 0x0000
20004a54:	6649                	.insn	2, 0x6649
20004a56:	6520                	.insn	2, 0x6520
20004a58:	6576                	.insn	2, 0x6576
20004a5a:	7972                	.insn	2, 0x7972
20004a5c:	6874                	.insn	2, 0x6874
20004a5e:	6e69                	.insn	2, 0x6e69
20004a60:	63612067          	.insn	4, 0x63612067
20004a64:	7574                	.insn	2, 0x7574
20004a66:	6c61                	.insn	2, 0x6c61
20004a68:	796c                	.insn	2, 0x796c
20004a6a:	7720                	.insn	2, 0x7720
20004a6c:	736b726f          	jal	tp,200bc1a2 <__stack_top+0xb672e>
20004a70:	202c                	.insn	2, 0x202c
20004a72:	6f79                	.insn	2, 0x6f79
20004a74:	2075                	.insn	2, 0x2075
20004a76:	756f6873          	csrrsi	a6,0x756,30
20004a7a:	646c                	.insn	2, 0x646c
20004a7c:	7320                	.insn	2, 0x7320
20004a7e:	6565                	.insn	2, 0x6565
20004a80:	7420                	.insn	2, 0x7420
20004a82:	6568                	.insn	2, 0x6568
20004a84:	7020                	.insn	2, 0x7020
20004a86:	7361                	.insn	2, 0x7361
20004a88:	726f7773          	csrrci	a4,mhpmevent6h,30
20004a8c:	2064                	.insn	2, 0x2064
20004a8e:	79206e6f          	jal	t3,2000b220 <__stack_top+0x57ac>
20004a92:	2072756f          	jal	a0,2002c498 <__stack_top+0x26a24>
20004a96:	6964                	.insn	2, 0x6964
20004a98:	616c7073          	csrci	0x616,24
20004a9c:	2e79                	.insn	2, 0x2e79
20004a9e:	0000                	.insn	2, 0x0000
20004aa0:	4e4c                	.insn	2, 0x4e4c
20004aa2:	4a4d                	.insn	2, 0x4a4d
20004aa4:	5844                	.insn	2, 0x5844
20004aa6:	0000                	.insn	2, 0x0000
20004aa8:	500a                	.insn	2, 0x500a
20004aaa:	6f72                	.insn	2, 0x6f72
20004aac:	6d617267          	.insn	4, 0x6d617267
20004ab0:	6520                	.insn	2, 0x6520
20004ab2:	6978                	.insn	2, 0x6978
20004ab4:	6574                	.insn	2, 0x6574
20004ab6:	2064                	.insn	2, 0x2064
20004ab8:	68746977          	.insn	4, 0x68746977
20004abc:	6320                	.insn	2, 0x6320
20004abe:	2065646f          	jal	s0,2005acc4 <__stack_top+0x55250>
20004ac2:	6425                	.insn	2, 0x6425
20004ac4:	000a                	.insn	2, 0x000a
	...

20004ac8 <__clz_tab>:
20004ac8:	0100 0202 0303 0303 0404 0404 0404 0404     ................
20004ad8:	0505 0505 0505 0505 0505 0505 0505 0505     ................
20004ae8:	0606 0606 0606 0606 0606 0606 0606 0606     ................
20004af8:	0606 0606 0606 0606 0606 0606 0606 0606     ................
20004b08:	0707 0707 0707 0707 0707 0707 0707 0707     ................
20004b18:	0707 0707 0707 0707 0707 0707 0707 0707     ................
20004b28:	0707 0707 0707 0707 0707 0707 0707 0707     ................
20004b38:	0707 0707 0707 0707 0707 0707 0707 0707     ................
20004b48:	0808 0808 0808 0808 0808 0808 0808 0808     ................
20004b58:	0808 0808 0808 0808 0808 0808 0808 0808     ................
20004b68:	0808 0808 0808 0808 0808 0808 0808 0808     ................
20004b78:	0808 0808 0808 0808 0808 0808 0808 0808     ................
20004b88:	0808 0808 0808 0808 0808 0808 0808 0808     ................
20004b98:	0808 0808 0808 0808 0808 0808 0808 0808     ................
20004ba8:	0808 0808 0808 0808 0808 0808 0808 0808     ................
20004bb8:	0808 0808 0808 0808 0808 0808 0808 0808     ................
20004bc8:	2d23 2b30 0020 0000 6c68 004c 6665 4567     #-0+ ...hlL.efgE
20004bd8:	4746 0000 3130 3332 3534 3736 3938 4241     FG..0123456789AB
20004be8:	4443 4645 0000 0000 3130 3332 3534 3736     CDEF....01234567
20004bf8:	3938 6261 6463 6665 0000 0000 30d8 2000     89abcdef.....0. 
20004c08:	30f8 2000 30a8 2000 30a8 2000 30a8 2000     .0. .0. .0. .0. 
20004c18:	30a8 2000 30f8 2000 30a8 2000 30a8 2000     .0. .0. .0. .0. 
20004c28:	30a8 2000 30a8 2000 32e4 2000 3150 2000     .0. .0. .2. P1. 
20004c38:	325c 2000 30a8 2000 30a8 2000 332c 2000     \2. .0. .0. ,3. 
20004c48:	30a8 2000 3150 2000 30a8 2000 30a8 2000     .0. P1. .0. .0. 
20004c58:	3268 2000                                   h2. 
